TN:
SF:/usr/include/c++/4.5/bits/allocator.h
FN:101,_ZNSaISt13_Rb_tree_nodeIPvEEC2Ev
FN:101,_ZNSaIPvEC2Ev
FN:101,_ZNSaI17_loop_spec_threadEC2Ev
FN:101,_ZNSaISt13_Rb_tree_nodeISt4pairIKmiEEEC2Ev
FN:101,_ZNSaIiEC2Ev
FN:101,_ZNSaISt13_Rb_tree_nodeIiEEC2Ev
FN:101,_ZNSaIPFPvS_EEC2Ev
FN:101,_ZNSaISt13_Rb_tree_nodeISt4pairIKPv16_data_access_logEEEC2Ev
FN:103,_ZNSaISt13_Rb_tree_nodeIPvEEC2ERKS2_
FN:103,_ZNSaIPFPvS_EEC2ERKS2_
FN:103,_ZNSaIPvEC2ERKS0_
FN:103,_ZNSaISt13_Rb_tree_nodeIiEEC2ERKS1_
FN:103,_ZNSaIiEC2ERKS_
FN:107,_ZNSaIiEC2ISt13_Rb_tree_nodeIiEEERKSaIT_E
FN:107,_ZNSaISt4pairIKmiEEC2ISt13_Rb_tree_nodeIS1_EEERKSaIT_E
FN:107,_ZNSaISt4pairIKPv16_data_access_logEEC2ISt13_Rb_tree_nodeIS3_EEERKSaIT_E
FN:107,_ZNSaIPvEC2ISt13_Rb_tree_nodeIS_EEERKSaIT_E
FN:109,_ZNSaI17_loop_spec_threadED2Ev
FN:109,_ZNSaIPFPvS_EED2Ev
FN:109,_ZNSaISt13_Rb_tree_nodeISt4pairIKPv16_data_access_logEEED2Ev
FN:109,_ZNSaISt4pairIKmiEED2Ev
FN:109,_ZNSaIiED2Ev
FN:109,_ZNSaISt13_Rb_tree_nodeISt4pairIKmiEEED2Ev
FN:109,_ZNSaISt4pairIKPv16_data_access_logEED2Ev
FN:109,_ZNSaISt13_Rb_tree_nodeIiEED2Ev
FN:109,_ZNSaISt13_Rb_tree_nodeIPvEED2Ev
FN:109,_ZNSaIPvED2Ev
FNDA:1162,_ZNSaIiEC2Ev
FNDA:432,_ZNSaISt13_Rb_tree_nodeIPvEEC2Ev
FNDA:2,_ZNSaISt13_Rb_tree_nodeISt4pairIKmiEEEC2Ev
FNDA:346,_ZNSaISt13_Rb_tree_nodeIiEEC2Ev
FNDA:347,_ZNSaIPvEC2Ev
FNDA:2,_ZNSaI17_loop_spec_threadEC2Ev
FNDA:2,_ZNSaISt13_Rb_tree_nodeISt4pairIKPv16_data_access_logEEEC2Ev
FNDA:1,_ZNSaIPFPvS_EEC2Ev
FNDA:1042,_ZNSaIiEC2ERKS_
FNDA:1340,_ZNSaISt13_Rb_tree_nodeIPvEEC2ERKS2_
FNDA:4,_ZNSaIPFPvS_EEC2ERKS2_
FNDA:1042,_ZNSaIPvEC2ERKS0_
FNDA:1038,_ZNSaISt13_Rb_tree_nodeIiEEC2ERKS1_
FNDA:0,_ZNSaIiEC2ISt13_Rb_tree_nodeIiEEERKSaIT_E
FNDA:2920,_ZNSaIPvEC2ISt13_Rb_tree_nodeIS_EEERKSaIT_E
FNDA:432,_ZNSaISt4pairIKmiEEC2ISt13_Rb_tree_nodeIS1_EEERKSaIT_E
FNDA:692,_ZNSaISt4pairIKPv16_data_access_logEEC2ISt13_Rb_tree_nodeIS3_EEERKSaIT_E
FNDA:1772,_ZNSaISt13_Rb_tree_nodeIPvEED2Ev
FNDA:2,_ZNSaISt13_Rb_tree_nodeISt4pairIKmiEEED2Ev
FNDA:1384,_ZNSaISt13_Rb_tree_nodeIiEED2Ev
FNDA:2,_ZNSaISt13_Rb_tree_nodeISt4pairIKPv16_data_access_logEEED2Ev
FNDA:2204,_ZNSaIiED2Ev
FNDA:4309,_ZNSaIPvED2Ev
FNDA:2,_ZNSaI17_loop_spec_threadED2Ev
FNDA:5,_ZNSaIPFPvS_EED2Ev
FNDA:432,_ZNSaISt4pairIKmiEED2Ev
FNDA:692,_ZNSaISt4pairIKPv16_data_access_logEED2Ev
FNF:27
FNH:26
DA:101,2294
DA:103,4466
DA:104,4466
DA:107,4044
DA:109,10804
LF:5
LH:5
end_of_record
SF:/usr/include/c++/4.5/bits/basic_ios.h
FN:46,_ZSt13__check_facetISt5ctypeIcEERKT_PS3_
FN:127,_ZNKSt9basic_iosIcSt11char_traitsIcEE7rdstateEv
FN:147,_ZNSt9basic_iosIcSt11char_traitsIcEE8setstateESt12_Ios_Iostate
FN:439,_ZNKSt9basic_iosIcSt11char_traitsIcEE5widenEc
FNDA:0,_ZSt13__check_facetISt5ctypeIcEERKT_PS3_
FNDA:0,_ZNKSt9basic_iosIcSt11char_traitsIcEE7rdstateEv
FNDA:0,_ZNSt9basic_iosIcSt11char_traitsIcEE8setstateESt12_Ios_Iostate
FNDA:0,_ZNKSt9basic_iosIcSt11char_traitsIcEE5widenEc
FNF:4
FNH:0
BRDA:48,0,0,-
BRDA:48,0,1,-
BRF:2
BRH:0
DA:46,0
DA:48,0
DA:49,0
DA:50,0
DA:127,0
DA:128,0
DA:147,0
DA:148,0
DA:439,0
DA:440,0
LF:10
LH:0
end_of_record
SF:/usr/include/c++/4.5/bits/char_traits.h
FN:262,_ZNSt11char_traitsIcE6lengthEPKc
FNDA:0,_ZNSt11char_traitsIcE6lengthEPKc
FNF:1
FNH:0
DA:262,0
DA:263,0
LF:2
LH:0
end_of_record
SF:/usr/include/c++/4.5/bits/ios_base.h
FN:166,_ZStorSt12_Ios_IostateS_
FNDA:0,_ZStorSt12_Ios_IostateS_
FNF:1
FNH:0
DA:166,0
DA:167,0
LF:2
LH:0
end_of_record
SF:/usr/include/c++/4.5/bits/locale_facets.h
FN:864,_ZNKSt5ctypeIcE5widenEc
FNDA:0,_ZNKSt5ctypeIcE5widenEc
FNF:1
FNH:0
BRDA:866,0,0,-
BRDA:866,0,1,-
BRF:2
BRH:0
DA:864,0
DA:866,0
DA:867,0
DA:868,0
DA:869,0
LF:5
LH:0
end_of_record
SF:/usr/include/c++/4.5/bits/stl_algobase.h
FN:209,_ZSt3maxIjERKT_S2_S2_
FN:269,_ZNSt10_Iter_baseIPPvLb0EE7_S_baseES1_
FN:269,_ZNSt10_Iter_baseIN9__gnu_cxx17__normal_iteratorIPiSt6vectorIiSaIiEEEELb0EE7_S_baseES6_
FN:269,_ZNSt10_Iter_baseIN9__gnu_cxx17__normal_iteratorIPKiSt6vectorIiSaIiEEEELb0EE7_S_baseES7_
FN:269,_ZNSt10_Iter_baseISt23_Rb_tree_const_iteratorIiELb0EE7_S_baseES1_
FN:269,_ZNSt10_Iter_baseIP17_loop_spec_threadLb0EE7_S_baseES1_
FN:269,_ZNSt10_Iter_baseIPiLb0EE7_S_baseES0_
FN:269,_ZNSt10_Iter_baseIPPFPvS0_ELb0EE7_S_baseES3_
FN:269,_ZNSt10_Iter_baseIN9__gnu_cxx17__normal_iteratorIPPvSt6vectorIS2_SaIS2_EEEELb0EE7_S_baseES7_
FN:269,_ZNSt10_Iter_baseIN9__gnu_cxx17__normal_iteratorIPKPFPvS2_ESt6vectorIS4_SaIS4_EEEELb0EE7_S_baseESA_
FN:269,_ZNSt10_Iter_baseIN9__gnu_cxx17__normal_iteratorIPKPvSt6vectorIS2_SaIS2_EEEELb0EE7_S_baseES8_
FN:278,_ZNSt10_Iter_baseIN9__gnu_cxx17__normal_iteratorIPiSt6vectorIiSaIiEEEELb1EE7_S_baseES6_
FN:278,_ZNSt10_Iter_baseIN9__gnu_cxx17__normal_iteratorIPKiSt6vectorIiSaIiEEEELb1EE7_S_baseES7_
FN:278,_ZNSt10_Iter_baseIN9__gnu_cxx17__normal_iteratorIPPvSt6vectorIS2_SaIS2_EEEELb1EE7_S_baseES7_
FN:278,_ZNSt10_Iter_baseIN9__gnu_cxx17__normal_iteratorIPKPvSt6vectorIS2_SaIS2_EEEELb1EE7_S_baseES8_
FN:278,_ZNSt10_Iter_baseIN9__gnu_cxx17__normal_iteratorIPKPFPvS2_ESt6vectorIS4_SaIS4_EEEELb1EE7_S_baseESA_
FN:291,_ZSt12__niter_baseIN9__gnu_cxx17__normal_iteratorIPiSt6vectorIiSaIiEEEEENSt11_Niter_baseIT_E13iterator_typeES8_
FN:291,_ZSt12__niter_baseIPPFPvS0_EENSt11_Niter_baseIT_E13iterator_typeES5_
FN:291,_ZSt12__niter_baseIN9__gnu_cxx17__normal_iteratorIPPvSt6vectorIS2_SaIS2_EEEEENSt11_Niter_baseIT_E13iterator_typeES9_
FN:291,_ZSt12__niter_baseIPiENSt11_Niter_baseIT_E13iterator_typeES2_
FN:291,_ZSt12__niter_baseISt23_Rb_tree_const_iteratorIiEENSt11_Niter_baseIT_E13iterator_typeES3_
FN:291,_ZSt12__niter_baseIPPvENSt11_Niter_baseIT_E13iterator_typeES3_
FN:291,_ZSt12__niter_baseIN9__gnu_cxx17__normal_iteratorIPKPvSt6vectorIS2_SaIS2_EEEEENSt11_Niter_baseIT_E13iterator_typeESA_
FN:291,_ZSt12__niter_baseIN9__gnu_cxx17__normal_iteratorIPKiSt6vectorIiSaIiEEEEENSt11_Niter_baseIT_E13iterator_typeES9_
FN:291,_ZSt12__niter_baseIN9__gnu_cxx17__normal_iteratorIPKPFPvS2_ESt6vectorIS4_SaIS4_EEEEENSt11_Niter_baseIT_E13iterator_typeESC_
FN:291,_ZSt12__niter_baseIP17_loop_spec_threadENSt11_Niter_baseIT_E13iterator_typeES3_
FN:302,_ZSt12__miter_baseIN9__gnu_cxx17__normal_iteratorIPKPvSt6vectorIS2_SaIS2_EEEEENSt11_Miter_baseIT_E13iterator_typeESA_
FN:302,_ZSt12__miter_baseIN9__gnu_cxx17__normal_iteratorIPPvSt6vectorIS2_SaIS2_EEEEENSt11_Miter_baseIT_E13iterator_typeES9_
FN:302,_ZSt12__miter_baseIPPFPvS0_EENSt11_Miter_baseIT_E13iterator_typeES5_
FN:302,_ZSt12__miter_baseIPiENSt11_Miter_baseIT_E13iterator_typeES2_
FN:302,_ZSt12__miter_baseIN9__gnu_cxx17__normal_iteratorIPKPFPvS2_ESt6vectorIS4_SaIS4_EEEEENSt11_Miter_baseIT_E13iterator_typeESC_
FN:302,_ZSt12__miter_baseIN9__gnu_cxx17__normal_iteratorIPiSt6vectorIiSaIiEEEEENSt11_Miter_baseIT_E13iterator_typeES8_
FN:302,_ZSt12__miter_baseISt23_Rb_tree_const_iteratorIiEENSt11_Miter_baseIT_E13iterator_typeES3_
FN:302,_ZSt12__miter_baseIPPvENSt11_Miter_baseIT_E13iterator_typeES3_
FN:302,_ZSt12__miter_baseIP17_loop_spec_threadENSt11_Miter_baseIT_E13iterator_typeES3_
FN:302,_ZSt12__miter_baseIN9__gnu_cxx17__normal_iteratorIPKiSt6vectorIiSaIiEEEEENSt11_Miter_baseIT_E13iterator_typeES9_
FN:316,_ZNSt11__copy_moveILb0ELb0ESt26bidirectional_iterator_tagE8__copy_mISt23_Rb_tree_const_iteratorIiEPiEET0_T_S7_S6_
FN:382,_ZNSt11__copy_moveILb0ELb1ESt26random_access_iterator_tagE8__copy_mIPFPvS3_EEEPT_PKS6_S9_S7_
FN:382,_ZNSt11__copy_moveILb0ELb1ESt26random_access_iterator_tagE8__copy_mIiEEPT_PKS3_S6_S4_
FN:382,_ZNSt11__copy_moveILb0ELb1ESt26random_access_iterator_tagE8__copy_mIPvEEPT_PKS4_S7_S5_
FN:393,_ZSt13__copy_move_aILb0EPiS0_ET1_T0_S2_S1_
FN:393,_ZSt13__copy_move_aILb0EPPvS1_ET1_T0_S3_S2_
FN:393,_ZSt13__copy_move_aILb0EPKPFPvS0_EPS2_ET1_T0_S7_S6_
FN:393,_ZSt13__copy_move_aILb0ESt23_Rb_tree_const_iteratorIiEPiET1_T0_S4_S3_
FN:393,_ZSt13__copy_move_aILb0EPPFPvS0_ES3_ET1_T0_S5_S4_
FN:393,_ZSt13__copy_move_aILb0EPKPvPS0_ET1_T0_S5_S4_
FN:393,_ZSt13__copy_move_aILb0EPKiPiET1_T0_S4_S3_
FN:438,_ZSt14__copy_move_a2ILb0EN9__gnu_cxx17__normal_iteratorIPKiSt6vectorIiSaIiEEEEPiET1_T0_SA_S9_
FN:438,_ZSt14__copy_move_a2ILb0ESt23_Rb_tree_const_iteratorIiEPiET1_T0_S4_S3_
FN:438,_ZSt14__copy_move_a2ILb0EPPvS1_ET1_T0_S3_S2_
FN:438,_ZSt14__copy_move_a2ILb0EPiS0_ET1_T0_S2_S1_
FN:438,_ZSt14__copy_move_a2ILb0EN9__gnu_cxx17__normal_iteratorIPPvSt6vectorIS2_SaIS2_EEEES7_ET1_T0_S9_S8_
FN:438,_ZSt14__copy_move_a2ILb0EPPFPvS0_ES3_ET1_T0_S5_S4_
FN:438,_ZSt14__copy_move_a2ILb0EN9__gnu_cxx17__normal_iteratorIPKPFPvS2_ESt6vectorIS4_SaIS4_EEEEPS4_ET1_T0_SD_SC_
FN:438,_ZSt14__copy_move_a2ILb0EN9__gnu_cxx17__normal_iteratorIPiSt6vectorIiSaIiEEEES2_ET1_T0_S8_S7_
FN:438,_ZSt14__copy_move_a2ILb0EN9__gnu_cxx17__normal_iteratorIPKiSt6vectorIiSaIiEEEENS1_IPiS6_EEET1_T0_SB_SA_
FN:438,_ZSt14__copy_move_a2ILb0EN9__gnu_cxx17__normal_iteratorIPKPvSt6vectorIS2_SaIS2_EEEEPS2_ET1_T0_SB_SA_
FN:438,_ZSt14__copy_move_a2ILb0ESt23_Rb_tree_const_iteratorIiEN9__gnu_cxx17__normal_iteratorIPiSt6vectorIiSaIiEEEEET1_T0_SA_S9_
FN:438,_ZSt14__copy_move_a2ILb0EN9__gnu_cxx17__normal_iteratorIPiSt6vectorIiSaIiEEEES6_ET1_T0_S8_S7_
FN:464,_ZSt4copyIN9__gnu_cxx17__normal_iteratorIPKPFPvS2_ESt6vectorIS4_SaIS4_EEEEPS4_ET0_T_SD_SC_
FN:464,_ZSt4copyIN9__gnu_cxx17__normal_iteratorIPKPvSt6vectorIS2_SaIS2_EEEEPS2_ET0_T_SB_SA_
FN:464,_ZSt4copyIN9__gnu_cxx17__normal_iteratorIPPvSt6vectorIS2_SaIS2_EEEES7_ET0_T_S9_S8_
FN:464,_ZSt4copyIPiS0_ET0_T_S2_S1_
FN:464,_ZSt4copyIN9__gnu_cxx17__normal_iteratorIPiSt6vectorIiSaIiEEEES2_ET0_T_S8_S7_
FN:464,_ZSt4copyIN9__gnu_cxx17__normal_iteratorIPiSt6vectorIiSaIiEEEES6_ET0_T_S8_S7_
FN:464,_ZSt4copyISt23_Rb_tree_const_iteratorIiEPiET0_T_S4_S3_
FN:464,_ZSt4copyIN9__gnu_cxx17__normal_iteratorIPKiSt6vectorIiSaIiEEEENS1_IPiS6_EEET0_T_SB_SA_
FN:464,_ZSt4copyIPPFPvS0_ES3_ET0_T_S5_S4_
FN:464,_ZSt4copyIN9__gnu_cxx17__normal_iteratorIPKiSt6vectorIiSaIiEEEEPiET0_T_SA_S9_
FN:464,_ZSt4copyISt23_Rb_tree_const_iteratorIiEN9__gnu_cxx17__normal_iteratorIPiSt6vectorIiSaIiEEEEET0_T_SA_S9_
FN:464,_ZSt4copyIPPvS1_ET0_T_S3_S2_
FN:547,_ZNSt20__copy_move_backwardILb0ELb0ESt26random_access_iterator_tagE13__copy_move_bIP17_loop_spec_threadS4_EET0_T_S6_S5_
FN:577,_ZNSt20__copy_move_backwardILb0ELb1ESt26random_access_iterator_tagE13__copy_move_bIiEEPT_PKS3_S6_S4_
FN:577,_ZNSt20__copy_move_backwardILb0ELb1ESt26random_access_iterator_tagE13__copy_move_bIPvEEPT_PKS4_S7_S5_
FN:577,_ZNSt20__copy_move_backwardILb0ELb1ESt26random_access_iterator_tagE13__copy_move_bIPFPvS3_EEEPT_PKS6_S9_S7_
FN:588,_ZSt22__copy_move_backward_aILb0EP17_loop_spec_threadS1_ET1_T0_S3_S2_
FN:588,_ZSt22__copy_move_backward_aILb0EPPFPvS0_ES3_ET1_T0_S5_S4_
FN:588,_ZSt22__copy_move_backward_aILb0EPiS0_ET1_T0_S2_S1_
FN:588,_ZSt22__copy_move_backward_aILb0EPPvS1_ET1_T0_S3_S2_
FN:606,_ZSt23__copy_move_backward_a2ILb0EPPvS1_ET1_T0_S3_S2_
FN:606,_ZSt23__copy_move_backward_a2ILb0EP17_loop_spec_threadS1_ET1_T0_S3_S2_
FN:606,_ZSt23__copy_move_backward_a2ILb0EPPFPvS0_ES3_ET1_T0_S5_S4_
FN:606,_ZSt23__copy_move_backward_a2ILb0EPiS0_ET1_T0_S2_S1_
FN:633,_ZSt13copy_backwardIPPFPvS0_ES3_ET0_T_S5_S4_
FN:633,_ZSt13copy_backwardIPPvS1_ET0_T_S3_S2_
FN:633,_ZSt13copy_backwardIPiS0_ET0_T_S2_S1_
FN:633,_ZSt13copy_backwardIP17_loop_spec_threadS1_ET0_T_S3_S2_
FN:692,_ZSt8__fill_aIP17_loop_spec_threadS0_EN9__gnu_cxx11__enable_ifIXntsrSt11__is_scalarIT0_E7__valueEvE6__typeET_S9_RKS5_
FN:735,_ZSt4fillIP17_loop_spec_threadS0_EvT_S2_RKT0_
FNDA:1846,_ZSt3maxIjERKT_S2_S2_
FNDA:0,_ZNSt10_Iter_baseIN9__gnu_cxx17__normal_iteratorIPiSt6vectorIiSaIiEEEELb0EE7_S_baseES6_
FNDA:0,_ZNSt10_Iter_baseIN9__gnu_cxx17__normal_iteratorIPPvSt6vectorIS2_SaIS2_EEEELb0EE7_S_baseES7_
FNDA:10182,_ZNSt10_Iter_baseIPiLb0EE7_S_baseES0_
FNDA:2084,_ZNSt10_Iter_baseIN9__gnu_cxx17__normal_iteratorIPKiSt6vectorIiSaIiEEEELb0EE7_S_baseES7_
FNDA:14,_ZNSt10_Iter_baseIPPFPvS0_ELb0EE7_S_baseES3_
FNDA:10192,_ZNSt10_Iter_baseIPPvLb0EE7_S_baseES1_
FNDA:0,_ZNSt10_Iter_baseISt23_Rb_tree_const_iteratorIiELb0EE7_S_baseES1_
FNDA:400,_ZNSt10_Iter_baseIP17_loop_spec_threadLb0EE7_S_baseES1_
FNDA:8,_ZNSt10_Iter_baseIN9__gnu_cxx17__normal_iteratorIPKPFPvS2_ESt6vectorIS4_SaIS4_EEEELb0EE7_S_baseESA_
FNDA:2084,_ZNSt10_Iter_baseIN9__gnu_cxx17__normal_iteratorIPKPvSt6vectorIS2_SaIS2_EEEELb0EE7_S_baseES8_
FNDA:0,_ZNSt10_Iter_baseIN9__gnu_cxx17__normal_iteratorIPiSt6vectorIiSaIiEEEELb1EE7_S_baseES6_
FNDA:0,_ZNSt10_Iter_baseIN9__gnu_cxx17__normal_iteratorIPPvSt6vectorIS2_SaIS2_EEEELb1EE7_S_baseES7_
FNDA:2084,_ZNSt10_Iter_baseIN9__gnu_cxx17__normal_iteratorIPKiSt6vectorIiSaIiEEEELb1EE7_S_baseES7_
FNDA:8,_ZNSt10_Iter_baseIN9__gnu_cxx17__normal_iteratorIPKPFPvS2_ESt6vectorIS4_SaIS4_EEEELb1EE7_S_baseESA_
FNDA:2084,_ZNSt10_Iter_baseIN9__gnu_cxx17__normal_iteratorIPKPvSt6vectorIS2_SaIS2_EEEELb1EE7_S_baseES8_
FNDA:6526,_ZSt12__niter_baseIPiENSt11_Niter_baseIT_E13iterator_typeES2_
FNDA:0,_ZSt12__niter_baseIN9__gnu_cxx17__normal_iteratorIPiSt6vectorIiSaIiEEEEENSt11_Niter_baseIT_E13iterator_typeES8_
FNDA:0,_ZSt12__niter_baseIN9__gnu_cxx17__normal_iteratorIPPvSt6vectorIS2_SaIS2_EEEEENSt11_Niter_baseIT_E13iterator_typeES9_
FNDA:10,_ZSt12__niter_baseIPPFPvS0_EENSt11_Niter_baseIT_E13iterator_typeES5_
FNDA:6532,_ZSt12__niter_baseIPPvENSt11_Niter_baseIT_E13iterator_typeES3_
FNDA:0,_ZSt12__niter_baseISt23_Rb_tree_const_iteratorIiEENSt11_Niter_baseIT_E13iterator_typeES3_
FNDA:400,_ZSt12__niter_baseIP17_loop_spec_threadENSt11_Niter_baseIT_E13iterator_typeES3_
FNDA:2084,_ZSt12__niter_baseIN9__gnu_cxx17__normal_iteratorIPKiSt6vectorIiSaIiEEEEENSt11_Niter_baseIT_E13iterator_typeES9_
FNDA:8,_ZSt12__niter_baseIN9__gnu_cxx17__normal_iteratorIPKPFPvS2_ESt6vectorIS4_SaIS4_EEEEENSt11_Niter_baseIT_E13iterator_typeESC_
FNDA:2084,_ZSt12__niter_baseIN9__gnu_cxx17__normal_iteratorIPKPvSt6vectorIS2_SaIS2_EEEEENSt11_Niter_baseIT_E13iterator_typeESA_
FNDA:0,_ZSt12__miter_baseIN9__gnu_cxx17__normal_iteratorIPiSt6vectorIiSaIiEEEEENSt11_Miter_baseIT_E13iterator_typeES8_
FNDA:0,_ZSt12__miter_baseIN9__gnu_cxx17__normal_iteratorIPPvSt6vectorIS2_SaIS2_EEEEENSt11_Miter_baseIT_E13iterator_typeES9_
FNDA:3656,_ZSt12__miter_baseIPiENSt11_Miter_baseIT_E13iterator_typeES2_
FNDA:2084,_ZSt12__miter_baseIN9__gnu_cxx17__normal_iteratorIPKiSt6vectorIiSaIiEEEEENSt11_Miter_baseIT_E13iterator_typeES9_
FNDA:4,_ZSt12__miter_baseIPPFPvS0_EENSt11_Miter_baseIT_E13iterator_typeES5_
FNDA:3660,_ZSt12__miter_baseIPPvENSt11_Miter_baseIT_E13iterator_typeES3_
FNDA:0,_ZSt12__miter_baseISt23_Rb_tree_const_iteratorIiEENSt11_Miter_baseIT_E13iterator_typeES3_
FNDA:0,_ZSt12__miter_baseIP17_loop_spec_threadENSt11_Miter_baseIT_E13iterator_typeES3_
FNDA:8,_ZSt12__miter_baseIN9__gnu_cxx17__normal_iteratorIPKPFPvS2_ESt6vectorIS4_SaIS4_EEEEENSt11_Miter_baseIT_E13iterator_typeESC_
FNDA:2084,_ZSt12__miter_baseIN9__gnu_cxx17__normal_iteratorIPKPvSt6vectorIS2_SaIS2_EEEEENSt11_Miter_baseIT_E13iterator_typeESA_
FNDA:0,_ZNSt11__copy_moveILb0ELb0ESt26bidirectional_iterator_tagE8__copy_mISt23_Rb_tree_const_iteratorIiEPiEET0_T_S7_S6_
FNDA:2870,_ZNSt11__copy_moveILb0ELb1ESt26random_access_iterator_tagE8__copy_mIiEEPT_PKS3_S6_S4_
FNDA:2872,_ZNSt11__copy_moveILb0ELb1ESt26random_access_iterator_tagE8__copy_mIPvEEPT_PKS4_S7_S5_
FNDA:6,_ZNSt11__copy_moveILb0ELb1ESt26random_access_iterator_tagE8__copy_mIPFPvS3_EEEPT_PKS6_S9_S7_
FNDA:1828,_ZSt13__copy_move_aILb0EPiS0_ET1_T0_S2_S1_
FNDA:1830,_ZSt13__copy_move_aILb0EPPvS1_ET1_T0_S3_S2_
FNDA:1042,_ZSt13__copy_move_aILb0EPKiPiET1_T0_S4_S3_
FNDA:0,_ZSt13__copy_move_aILb0ESt23_Rb_tree_const_iteratorIiEPiET1_T0_S4_S3_
FNDA:1042,_ZSt13__copy_move_aILb0EPKPvPS0_ET1_T0_S5_S4_
FNDA:4,_ZSt13__copy_move_aILb0EPKPFPvS0_EPS2_ET1_T0_S7_S6_
FNDA:2,_ZSt13__copy_move_aILb0EPPFPvS0_ES3_ET1_T0_S5_S4_
FNDA:1828,_ZSt14__copy_move_a2ILb0EPiS0_ET1_T0_S2_S1_
FNDA:0,_ZSt14__copy_move_a2ILb0EN9__gnu_cxx17__normal_iteratorIPiSt6vectorIiSaIiEEEES6_ET1_T0_S8_S7_
FNDA:0,_ZSt14__copy_move_a2ILb0EN9__gnu_cxx17__normal_iteratorIPPvSt6vectorIS2_SaIS2_EEEES7_ET1_T0_S9_S8_
FNDA:1042,_ZSt14__copy_move_a2ILb0EN9__gnu_cxx17__normal_iteratorIPKiSt6vectorIiSaIiEEEEPiET1_T0_SA_S9_
FNDA:0,_ZSt14__copy_move_a2ILb0EN9__gnu_cxx17__normal_iteratorIPKiSt6vectorIiSaIiEEEENS1_IPiS6_EEET1_T0_SB_SA_
FNDA:0,_ZSt14__copy_move_a2ILb0ESt23_Rb_tree_const_iteratorIiEN9__gnu_cxx17__normal_iteratorIPiSt6vectorIiSaIiEEEEET1_T0_SA_S9_
FNDA:0,_ZSt14__copy_move_a2ILb0ESt23_Rb_tree_const_iteratorIiEPiET1_T0_S4_S3_
FNDA:0,_ZSt14__copy_move_a2ILb0EN9__gnu_cxx17__normal_iteratorIPiSt6vectorIiSaIiEEEES2_ET1_T0_S8_S7_
FNDA:1830,_ZSt14__copy_move_a2ILb0EPPvS1_ET1_T0_S3_S2_
FNDA:2,_ZSt14__copy_move_a2ILb0EPPFPvS0_ES3_ET1_T0_S5_S4_
FNDA:4,_ZSt14__copy_move_a2ILb0EN9__gnu_cxx17__normal_iteratorIPKPFPvS2_ESt6vectorIS4_SaIS4_EEEEPS4_ET1_T0_SD_SC_
FNDA:1042,_ZSt14__copy_move_a2ILb0EN9__gnu_cxx17__normal_iteratorIPKPvSt6vectorIS2_SaIS2_EEEEPS2_ET1_T0_SB_SA_
FNDA:1828,_ZSt4copyIPiS0_ET0_T_S2_S1_
FNDA:0,_ZSt4copyIN9__gnu_cxx17__normal_iteratorIPiSt6vectorIiSaIiEEEES6_ET0_T_S8_S7_
FNDA:0,_ZSt4copyIN9__gnu_cxx17__normal_iteratorIPPvSt6vectorIS2_SaIS2_EEEES7_ET0_T_S9_S8_
FNDA:1042,_ZSt4copyIN9__gnu_cxx17__normal_iteratorIPKiSt6vectorIiSaIiEEEEPiET0_T_SA_S9_
FNDA:0,_ZSt4copyIN9__gnu_cxx17__normal_iteratorIPKiSt6vectorIiSaIiEEEENS1_IPiS6_EEET0_T_SB_SA_
FNDA:0,_ZSt4copyISt23_Rb_tree_const_iteratorIiEN9__gnu_cxx17__normal_iteratorIPiSt6vectorIiSaIiEEEEET0_T_SA_S9_
FNDA:0,_ZSt4copyISt23_Rb_tree_const_iteratorIiEPiET0_T_S4_S3_
FNDA:0,_ZSt4copyIN9__gnu_cxx17__normal_iteratorIPiSt6vectorIiSaIiEEEES2_ET0_T_S8_S7_
FNDA:1830,_ZSt4copyIPPvS1_ET0_T_S3_S2_
FNDA:2,_ZSt4copyIPPFPvS0_ES3_ET0_T_S5_S4_
FNDA:4,_ZSt4copyIN9__gnu_cxx17__normal_iteratorIPKPFPvS2_ESt6vectorIS4_SaIS4_EEEEPS4_ET0_T_SD_SC_
FNDA:1042,_ZSt4copyIN9__gnu_cxx17__normal_iteratorIPKPvSt6vectorIS2_SaIS2_EEEEPS2_ET0_T_SB_SA_
FNDA:0,_ZNSt20__copy_move_backwardILb0ELb0ESt26random_access_iterator_tagE13__copy_move_bIP17_loop_spec_threadS4_EET0_T_S6_S5_
FNDA:0,_ZNSt20__copy_move_backwardILb0ELb1ESt26random_access_iterator_tagE13__copy_move_bIiEEPT_PKS3_S6_S4_
FNDA:0,_ZNSt20__copy_move_backwardILb0ELb1ESt26random_access_iterator_tagE13__copy_move_bIPFPvS3_EEEPT_PKS6_S9_S7_
FNDA:0,_ZNSt20__copy_move_backwardILb0ELb1ESt26random_access_iterator_tagE13__copy_move_bIPvEEPT_PKS4_S7_S5_
FNDA:0,_ZSt22__copy_move_backward_aILb0EPiS0_ET1_T0_S2_S1_
FNDA:0,_ZSt22__copy_move_backward_aILb0EPPFPvS0_ES3_ET1_T0_S5_S4_
FNDA:0,_ZSt22__copy_move_backward_aILb0EPPvS1_ET1_T0_S3_S2_
FNDA:0,_ZSt22__copy_move_backward_aILb0EP17_loop_spec_threadS1_ET1_T0_S3_S2_
FNDA:0,_ZSt23__copy_move_backward_a2ILb0EPiS0_ET1_T0_S2_S1_
FNDA:0,_ZSt23__copy_move_backward_a2ILb0EPPFPvS0_ES3_ET1_T0_S5_S4_
FNDA:0,_ZSt23__copy_move_backward_a2ILb0EPPvS1_ET1_T0_S3_S2_
FNDA:0,_ZSt23__copy_move_backward_a2ILb0EP17_loop_spec_threadS1_ET1_T0_S3_S2_
FNDA:0,_ZSt13copy_backwardIPiS0_ET0_T_S2_S1_
FNDA:0,_ZSt13copy_backwardIPPFPvS0_ES3_ET0_T_S5_S4_
FNDA:0,_ZSt13copy_backwardIPPvS1_ET0_T_S3_S2_
FNDA:0,_ZSt13copy_backwardIP17_loop_spec_threadS1_ET0_T_S3_S2_
FNDA:200,_ZSt8__fill_aIP17_loop_spec_threadS0_EN9__gnu_cxx11__enable_ifIXntsrSt11__is_scalarIT0_E7__valueEvE6__typeET_S9_RKS5_
FNDA:200,_ZSt4fillIP17_loop_spec_threadS0_EvT_S2_RKT0_
FNF:89
FNH:47
BRDA:214,0,0,696
BRDA:214,0,1,1150
BRDA:318,1,2,-
BRDA:318,1,3,-
BRDA:385,0,0,1606
BRDA:385,0,1,1264
BRDA:385,1,2,1610
BRDA:385,1,3,1262
BRDA:385,2,4,4
BRDA:385,2,5,2
BRDA:550,1,0,-
BRDA:550,1,1,-
BRDA:580,0,0,-
BRDA:580,0,1,-
BRDA:580,1,2,-
BRDA:580,1,3,-
BRDA:580,2,4,-
BRDA:580,2,5,-
BRDA:695,1,0,0
BRDA:695,1,1,200
BRF:20
BRH:9
DA:209,1846
DA:214,1846
DA:215,696
DA:216,1846
DA:269,24964
DA:270,24964
DA:278,4176
DA:279,4176
DA:291,17644
DA:292,17644
DA:302,11496
DA:303,11496
DA:316,0
DA:318,0
DA:319,0
DA:320,0
DA:382,5748
DA:384,5748
DA:385,5748
DA:386,3220
DA:387,5748
DA:393,5748
DA:401,5748
DA:404,5748
DA:438,5748
DA:442,5748
DA:464,5748
DA:474,5748
DA:547,0
DA:550,0
DA:551,0
DA:552,0
DA:577,0
DA:579,0
DA:580,0
DA:581,0
DA:582,0
DA:588,0
DA:596,0
DA:601,0
DA:606,0
DA:610,0
DA:633,0
DA:645,0
DA:692,200
DA:695,200
DA:696,0
DA:697,200
DA:735,200
DA:742,200
DA:744,200
LF:51
LH:30
end_of_record
SF:/usr/include/c++/4.5/bits/stl_construct.h
FN:75,_ZSt10_ConstructI17_loop_spec_threadS0_EvPT_RKT0_
FN:88,_ZSt8_DestroyI17_loop_spec_threadEvPT_
FN:96,_ZNSt12_Destroy_auxILb0EE9__destroyIP17_loop_spec_threadEEvT_S4_
FN:108,_ZNSt12_Destroy_auxILb1EE9__destroyIPPFPvS2_EEEvT_S6_
FN:108,_ZNSt12_Destroy_auxILb1EE9__destroyIPPvEEvT_S4_
FN:108,_ZNSt12_Destroy_auxILb1EE9__destroyIPiEEvT_S3_
FN:108,_ZNSt12_Destroy_auxILb1EE9__destroyIN9__gnu_cxx17__normal_iteratorIPiSt6vectorIiSaIiEEEEEEvT_S9_
FN:118,_ZSt8_DestroyIPiEvT_S1_
FN:118,_ZSt8_DestroyIP17_loop_spec_threadEvT_S2_
FN:118,_ZSt8_DestroyIPPvEvT_S2_
FN:118,_ZSt8_DestroyIPPFPvS0_EEvT_S4_
FN:118,_ZSt8_DestroyIN9__gnu_cxx17__normal_iteratorIPiSt6vectorIiSaIiEEEEEvT_S7_
FN:145,_ZSt8_DestroyIPiiEvT_S1_RSaIT0_E
FN:145,_ZSt8_DestroyIN9__gnu_cxx17__normal_iteratorIPiSt6vectorIiSaIiEEEEiEvT_S7_RSaIT0_E
FN:145,_ZSt8_DestroyIPPFPvS0_ES2_EvT_S4_RSaIT0_E
FN:145,_ZSt8_DestroyIP17_loop_spec_threadS0_EvT_S2_RSaIT0_E
FN:145,_ZSt8_DestroyIPPvS0_EvT_S2_RSaIT0_E
FNDA:470,_ZSt10_ConstructI17_loop_spec_threadS0_EvPT_RKT0_
FNDA:470,_ZSt8_DestroyI17_loop_spec_threadEvPT_
FNDA:20,_ZNSt12_Destroy_auxILb0EE9__destroyIP17_loop_spec_threadEEvT_S4_
FNDA:3118,_ZNSt12_Destroy_auxILb1EE9__destroyIPiEEvT_S3_
FNDA:2307,_ZNSt12_Destroy_auxILb1EE9__destroyIPPvEEvT_S4_
FNDA:9,_ZNSt12_Destroy_auxILb1EE9__destroyIPPFPvS2_EEEvT_S6_
FNDA:0,_ZNSt12_Destroy_auxILb1EE9__destroyIN9__gnu_cxx17__normal_iteratorIPiSt6vectorIiSaIiEEEEEEvT_S9_
FNDA:3118,_ZSt8_DestroyIPiEvT_S1_
FNDA:2307,_ZSt8_DestroyIPPvEvT_S2_
FNDA:9,_ZSt8_DestroyIPPFPvS0_EEvT_S4_
FNDA:20,_ZSt8_DestroyIP17_loop_spec_threadEvT_S2_
FNDA:0,_ZSt8_DestroyIN9__gnu_cxx17__normal_iteratorIPiSt6vectorIiSaIiEEEEEvT_S7_
FNDA:3118,_ZSt8_DestroyIPiiEvT_S1_RSaIT0_E
FNDA:2307,_ZSt8_DestroyIPPvS0_EvT_S2_RSaIT0_E
FNDA:9,_ZSt8_DestroyIPPFPvS0_ES2_EvT_S4_RSaIT0_E
FNDA:20,_ZSt8_DestroyIP17_loop_spec_threadS0_EvT_S2_RSaIT0_E
FNDA:0,_ZSt8_DestroyIN9__gnu_cxx17__normal_iteratorIPiSt6vectorIiSaIiEEEEiEvT_S7_RSaIT0_E
FNF:17
FNH:14
BRDA:80,0,1,470
BRDA:80,0,2,0
BRDA:80,1,3,470
BRDA:80,1,4,0
BRDA:98,1,0,470
BRDA:98,1,1,20
BRF:6
BRH:4
DA:75,470
DA:80,470
DA:81,470
DA:88,470
DA:89,470
DA:96,20
DA:98,490
DA:99,470
DA:100,20
DA:108,5434
DA:118,5454
DA:122,5454
DA:124,5454
DA:145,5454
DA:148,5454
DA:149,5454
LF:16
LH:16
end_of_record
SF:/usr/include/c++/4.5/bits/stl_function.h
FN:229,_ZNKSt4lessImEclERKmS2_
FN:229,_ZNKSt4lessIiEclERKiS2_
FN:229,_ZNKSt4lessIPvEclERKS0_S3_
FN:475,_ZNKSt9_IdentityIiEclERKi
FN:475,_ZNKSt9_IdentityIPvEclERKS0_
FN:488,_ZNKSt10_Select1stISt4pairIKPv16_data_access_logEEclERKS4_
FN:488,_ZNKSt10_Select1stISt4pairIKmiEEclERKS2_
FNDA:14631,_ZNKSt4lessIPvEclERKS0_S3_
FNDA:19454,_ZNKSt4lessImEclERKmS2_
FNDA:0,_ZNKSt4lessIiEclERKiS2_
FNDA:7308,_ZNKSt9_IdentityIPvEclERKS0_
FNDA:0,_ZNKSt9_IdentityIiEclERKi
FNDA:21284,_ZNKSt10_Select1stISt4pairIKmiEEclERKS2_
FNDA:13694,_ZNKSt10_Select1stISt4pairIKPv16_data_access_logEEclERKS4_
FNF:7
FNH:5
DA:229,34085
DA:230,34085
DA:475,7308
DA:476,7308
DA:488,34978
DA:489,34978
LF:6
LH:6
end_of_record
SF:/usr/include/c++/4.5/bits/stl_iterator.h
FN:715,_ZN9__gnu_cxx17__normal_iteratorIPPvSt6vectorIS1_SaIS1_EEEC2ERKS2_
FN:715,_ZN9__gnu_cxx17__normal_iteratorIPKPFPvS1_ESt6vectorIS3_SaIS3_EEEC2ERKS5_
FN:715,_ZN9__gnu_cxx17__normal_iteratorIPKiSt6vectorIiSaIiEEEC2ERKS2_
FN:715,_ZN9__gnu_cxx17__normal_iteratorIPK17_loop_spec_threadSt6vectorIS1_SaIS1_EEEC2ERKS3_
FN:715,_ZN9__gnu_cxx17__normal_iteratorIP17_loop_spec_threadSt6vectorIS1_SaIS1_EEEC2ERKS2_
FN:715,_ZN9__gnu_cxx17__normal_iteratorIPKPvSt6vectorIS1_SaIS1_EEEC2ERKS3_
FN:715,_ZN9__gnu_cxx17__normal_iteratorIPiSt6vectorIiSaIiEEEC2ERKS1_
FN:715,_ZN9__gnu_cxx17__normal_iteratorIPPFPvS1_ESt6vectorIS3_SaIS3_EEEC2ERKS4_
FN:727,_ZNK9__gnu_cxx17__normal_iteratorIPPvSt6vectorIS1_SaIS1_EEEdeEv
FN:727,_ZNK9__gnu_cxx17__normal_iteratorIPPFPvS1_ESt6vectorIS3_SaIS3_EEEdeEv
FN:727,_ZNK9__gnu_cxx17__normal_iteratorIPiSt6vectorIiSaIiEEEdeEv
FN:735,_ZN9__gnu_cxx17__normal_iteratorIPiSt6vectorIiSaIiEEEppEv
FN:763,_ZN9__gnu_cxx17__normal_iteratorIPiSt6vectorIiSaIiEEEpLERKi
FN:767,_ZNK9__gnu_cxx17__normal_iteratorIPiSt6vectorIiSaIiEEEplERKi
FN:767,_ZNK9__gnu_cxx17__normal_iteratorIPPvSt6vectorIS1_SaIS1_EEEplERKi
FN:779,_ZNK9__gnu_cxx17__normal_iteratorIPKiSt6vectorIiSaIiEEE4baseEv
FN:779,_ZNK9__gnu_cxx17__normal_iteratorIPPvSt6vectorIS1_SaIS1_EEE4baseEv
FN:779,_ZNK9__gnu_cxx17__normal_iteratorIPK17_loop_spec_threadSt6vectorIS1_SaIS1_EEE4baseEv
FN:779,_ZNK9__gnu_cxx17__normal_iteratorIPKPFPvS1_ESt6vectorIS3_SaIS3_EEE4baseEv
FN:779,_ZNK9__gnu_cxx17__normal_iteratorIP17_loop_spec_threadSt6vectorIS1_SaIS1_EEE4baseEv
FN:779,_ZNK9__gnu_cxx17__normal_iteratorIPPFPvS1_ESt6vectorIS3_SaIS3_EEE4baseEv
FN:779,_ZNK9__gnu_cxx17__normal_iteratorIPiSt6vectorIiSaIiEEE4baseEv
FN:779,_ZNK9__gnu_cxx17__normal_iteratorIPKPvSt6vectorIS1_SaIS1_EEE4baseEv
FN:800,_ZN9__gnu_cxxeqIPKiSt6vectorIiSaIiEEEEbRKNS_17__normal_iteratorIT_T0_EESB_
FN:800,_ZN9__gnu_cxxeqIPK17_loop_spec_threadSt6vectorIS1_SaIS1_EEEEbRKNS_17__normal_iteratorIT_T0_EESC_
FN:812,_ZN9__gnu_cxxneIPPvSt6vectorIS1_SaIS1_EEEEbRKNS_17__normal_iteratorIT_T0_EESB_
FN:812,_ZN9__gnu_cxxneIPiSt6vectorIiSaIiEEEEbRKNS_17__normal_iteratorIT_T0_EESA_
FN:885,_ZN9__gnu_cxxmiIP17_loop_spec_threadSt6vectorIS1_SaIS1_EEEENS_17__normal_iteratorIT_T0_E15difference_typeERKS9_SC_
FN:885,_ZN9__gnu_cxxmiIPiSt6vectorIiSaIiEEEENS_17__normal_iteratorIT_T0_E15difference_typeERKS8_SB_
FN:885,_ZN9__gnu_cxxmiIPPvSt6vectorIS1_SaIS1_EEEENS_17__normal_iteratorIT_T0_E15difference_typeERKS9_SC_
FN:885,_ZN9__gnu_cxxmiIPPFPvS1_ESt6vectorIS3_SaIS3_EEEENS_17__normal_iteratorIT_T0_E15difference_typeERKSB_SE_
FNDA:1828,_ZN9__gnu_cxx17__normal_iteratorIPiSt6vectorIiSaIiEEEC2ERKS1_
FNDA:1830,_ZN9__gnu_cxx17__normal_iteratorIPPvSt6vectorIS1_SaIS1_EEEC2ERKS2_
FNDA:3716,_ZN9__gnu_cxx17__normal_iteratorIPKiSt6vectorIiSaIiEEEC2ERKS2_
FNDA:8,_ZN9__gnu_cxx17__normal_iteratorIPK17_loop_spec_threadSt6vectorIS1_SaIS1_EEEC2ERKS3_
FNDA:432,_ZN9__gnu_cxx17__normal_iteratorIP17_loop_spec_threadSt6vectorIS1_SaIS1_EEEC2ERKS2_
FNDA:2,_ZN9__gnu_cxx17__normal_iteratorIPPFPvS1_ESt6vectorIS3_SaIS3_EEEC2ERKS4_
FNDA:8,_ZN9__gnu_cxx17__normal_iteratorIPKPFPvS1_ESt6vectorIS3_SaIS3_EEEC2ERKS5_
FNDA:2084,_ZN9__gnu_cxx17__normal_iteratorIPKPvSt6vectorIS1_SaIS1_EEEC2ERKS3_
FNDA:0,_ZNK9__gnu_cxx17__normal_iteratorIPiSt6vectorIiSaIiEEEdeEv
FNDA:0,_ZNK9__gnu_cxx17__normal_iteratorIPPFPvS1_ESt6vectorIS3_SaIS3_EEEdeEv
FNDA:0,_ZNK9__gnu_cxx17__normal_iteratorIPPvSt6vectorIS1_SaIS1_EEEdeEv
FNDA:0,_ZN9__gnu_cxx17__normal_iteratorIPiSt6vectorIiSaIiEEEppEv
FNDA:0,_ZN9__gnu_cxx17__normal_iteratorIPiSt6vectorIiSaIiEEEpLERKi
FNDA:0,_ZNK9__gnu_cxx17__normal_iteratorIPiSt6vectorIiSaIiEEEplERKi
FNDA:0,_ZNK9__gnu_cxx17__normal_iteratorIPPvSt6vectorIS1_SaIS1_EEEplERKi
FNDA:3716,_ZNK9__gnu_cxx17__normal_iteratorIPKiSt6vectorIiSaIiEEE4baseEv
FNDA:3656,_ZNK9__gnu_cxx17__normal_iteratorIPiSt6vectorIiSaIiEEE4baseEv
FNDA:3660,_ZNK9__gnu_cxx17__normal_iteratorIPPvSt6vectorIS1_SaIS1_EEE4baseEv
FNDA:8,_ZNK9__gnu_cxx17__normal_iteratorIPK17_loop_spec_threadSt6vectorIS1_SaIS1_EEE4baseEv
FNDA:4,_ZNK9__gnu_cxx17__normal_iteratorIPPFPvS1_ESt6vectorIS3_SaIS3_EEE4baseEv
FNDA:864,_ZNK9__gnu_cxx17__normal_iteratorIP17_loop_spec_threadSt6vectorIS1_SaIS1_EEE4baseEv
FNDA:8,_ZNK9__gnu_cxx17__normal_iteratorIPKPFPvS1_ESt6vectorIS3_SaIS3_EEE4baseEv
FNDA:2084,_ZNK9__gnu_cxx17__normal_iteratorIPKPvSt6vectorIS1_SaIS1_EEE4baseEv
FNDA:816,_ZN9__gnu_cxxeqIPKiSt6vectorIiSaIiEEEEbRKNS_17__normal_iteratorIT_T0_EESB_
FNDA:4,_ZN9__gnu_cxxeqIPK17_loop_spec_threadSt6vectorIS1_SaIS1_EEEEbRKNS_17__normal_iteratorIT_T0_EESC_
FNDA:0,_ZN9__gnu_cxxneIPiSt6vectorIiSaIiEEEEbRKNS_17__normal_iteratorIT_T0_EESA_
FNDA:0,_ZN9__gnu_cxxneIPPvSt6vectorIS1_SaIS1_EEEEbRKNS_17__normal_iteratorIT_T0_EESB_
FNDA:914,_ZN9__gnu_cxxmiIPiSt6vectorIiSaIiEEEENS_17__normal_iteratorIT_T0_E15difference_typeERKS8_SB_
FNDA:1,_ZN9__gnu_cxxmiIPPFPvS1_ESt6vectorIS3_SaIS3_EEEENS_17__normal_iteratorIT_T0_E15difference_typeERKSB_SE_
FNDA:915,_ZN9__gnu_cxxmiIPPvSt6vectorIS1_SaIS1_EEEENS_17__normal_iteratorIT_T0_E15difference_typeERKS9_SC_
FNDA:216,_ZN9__gnu_cxxmiIP17_loop_spec_threadSt6vectorIS1_SaIS1_EEEENS_17__normal_iteratorIT_T0_E15difference_typeERKS9_SC_
FNF:31
FNH:22
DA:715,9908
DA:727,0
DA:728,0
DA:735,0
DA:737,0
DA:738,0
DA:763,0
DA:764,0
DA:767,0
DA:768,0
DA:779,14000
DA:780,14000
DA:800,820
DA:802,820
DA:812,0
DA:814,0
DA:885,2046
DA:887,2046
LF:18
LH:7
end_of_record
SF:/usr/include/c++/4.5/bits/stl_iterator_base_funcs.h
FN:71,_ZSt10__distanceISt23_Rb_tree_const_iteratorIiEENSt15iterator_traitsIT_E15difference_typeES3_S3_St18input_iterator_tag
FN:88,_ZSt10__distanceIN9__gnu_cxx17__normal_iteratorIPiSt6vectorIiSaIiEEEEENSt15iterator_traitsIT_E15difference_typeES8_S8_St26random_access_iterator_tag
FN:111,_ZSt8distanceIN9__gnu_cxx17__normal_iteratorIPiSt6vectorIiSaIiEEEEENSt15iterator_traitsIT_E15difference_typeES8_S8_
FN:111,_ZSt8distanceISt23_Rb_tree_const_iteratorIiEENSt15iterator_traitsIT_E15difference_typeES3_S3_
FN:130,_ZSt9__advanceISt23_Rb_tree_const_iteratorIiEiEvRT_T0_St26bidirectional_iterator_tag
FN:146,_ZSt9__advanceIN9__gnu_cxx17__normal_iteratorIPiSt6vectorIiSaIiEEEEiEvRT_T0_St26random_access_iterator_tag
FN:169,_ZSt7advanceISt23_Rb_tree_const_iteratorIiEjEvRT_T0_
FN:169,_ZSt7advanceIN9__gnu_cxx17__normal_iteratorIPiSt6vectorIiSaIiEEEEjEvRT_T0_
FNDA:0,_ZSt10__distanceISt23_Rb_tree_const_iteratorIiEENSt15iterator_traitsIT_E15difference_typeES3_S3_St18input_iterator_tag
FNDA:0,_ZSt10__distanceIN9__gnu_cxx17__normal_iteratorIPiSt6vectorIiSaIiEEEEENSt15iterator_traitsIT_E15difference_typeES8_S8_St26random_access_iterator_tag
FNDA:0,_ZSt8distanceISt23_Rb_tree_const_iteratorIiEENSt15iterator_traitsIT_E15difference_typeES3_S3_
FNDA:0,_ZSt8distanceIN9__gnu_cxx17__normal_iteratorIPiSt6vectorIiSaIiEEEEENSt15iterator_traitsIT_E15difference_typeES8_S8_
FNDA:0,_ZSt9__advanceISt23_Rb_tree_const_iteratorIiEiEvRT_T0_St26bidirectional_iterator_tag
FNDA:0,_ZSt9__advanceIN9__gnu_cxx17__normal_iteratorIPiSt6vectorIiSaIiEEEEiEvRT_T0_St26random_access_iterator_tag
FNDA:0,_ZSt7advanceISt23_Rb_tree_const_iteratorIiEjEvRT_T0_
FNDA:0,_ZSt7advanceIN9__gnu_cxx17__normal_iteratorIPiSt6vectorIiSaIiEEEEjEvRT_T0_
FNF:8
FNH:0
BRDA:78,1,1,-
BRDA:78,1,2,-
BRDA:136,0,0,-
BRDA:136,0,1,-
BRDA:137,1,0,-
BRDA:137,1,1,-
BRDA:140,1,0,-
BRDA:140,1,1,-
BRF:8
BRH:0
DA:71,0
DA:77,0
DA:78,0
DA:80,0
DA:81,0
DA:83,0
DA:88,0
DA:94,0
DA:111,0
DA:115,0
DA:130,0
DA:136,0
DA:137,0
DA:138,0
DA:140,0
DA:141,0
DA:142,0
DA:146,0
DA:152,0
DA:153,0
DA:169,0
DA:172,0
DA:173,0
DA:174,0
LF:24
LH:0
end_of_record
SF:/usr/include/c++/4.5/bits/stl_iterator_base_types.h
FN:174,_ZSt19__iterator_categoryIN9__gnu_cxx17__normal_iteratorIPiSt6vectorIiSaIiEEEEENSt15iterator_traitsIT_E17iterator_categoryERKS8_
FN:174,_ZSt19__iterator_categoryISt23_Rb_tree_const_iteratorIiEENSt15iterator_traitsIT_E17iterator_categoryERKS3_
FNDA:0,_ZSt19__iterator_categoryISt23_Rb_tree_const_iteratorIiEENSt15iterator_traitsIT_E17iterator_categoryERKS3_
FNDA:0,_ZSt19__iterator_categoryIN9__gnu_cxx17__normal_iteratorIPiSt6vectorIiSaIiEEEEENSt15iterator_traitsIT_E17iterator_categoryERKS8_
FNF:2
FNH:0
DA:174,0
DA:175,0
LF:2
LH:0
end_of_record
SF:/usr/include/c++/4.5/bits/stl_map.h
FN:87,_ZNSt3mapIPv16_data_access_logSt4lessIS0_ESaISt4pairIKS0_S1_EEED2Ev
FN:87,_ZNSt3mapImiSt4lessImESaISt4pairIKmiEEED2Ev
FN:150,_ZNSt3mapIPv16_data_access_logSt4lessIS0_ESaISt4pairIKS0_S1_EEEC2Ev
FN:150,_ZNSt3mapImiSt4lessImESaISt4pairIKmiEEEC2Ev
FN:307,_ZNSt3mapImiSt4lessImESaISt4pairIKmiEEE5beginEv
FN:325,_ZNSt3mapImiSt4lessImESaISt4pairIKmiEEE3endEv
FN:325,_ZNSt3mapIPv16_data_access_logSt4lessIS0_ESaISt4pairIKS0_S1_EEE3endEv
FN:416,_ZNKSt3mapImiSt4lessImESaISt4pairIKmiEEE5emptyEv
FN:416,_ZNKSt3mapIPv16_data_access_logSt4lessIS0_ESaISt4pairIKS0_S1_EEE5emptyEv
FN:443,_ZNSt3mapImiSt4lessImESaISt4pairIKmiEEEixERS3_
FN:500,_ZNSt3mapImiSt4lessImESaISt4pairIKmiEEE6insertERKS4_
FN:500,_ZNSt3mapIPv16_data_access_logSt4lessIS0_ESaISt4pairIKS0_S1_EEE6insertERKS6_
FN:540,_ZNSt3mapImiSt4lessImESaISt4pairIKmiEEE6insertESt17_Rb_tree_iteratorIS4_ERKS4_
FN:663,_ZNSt3mapIPv16_data_access_logSt4lessIS0_ESaISt4pairIKS0_S1_EEE5clearEv
FN:663,_ZNSt3mapImiSt4lessImESaISt4pairIKmiEEE5clearEv
FN:672,_ZNKSt3mapImiSt4lessImESaISt4pairIKmiEEE8key_compEv
FN:696,_ZNSt3mapIPv16_data_access_logSt4lessIS0_ESaISt4pairIKS0_S1_EEE4findERS5_
FN:696,_ZNSt3mapImiSt4lessImESaISt4pairIKmiEEE4findERS3_
FN:738,_ZNSt3mapImiSt4lessImESaISt4pairIKmiEEE11lower_boundERS3_
FNDA:2,_ZNSt3mapImiSt4lessImESaISt4pairIKmiEEED2Ev
FNDA:2,_ZNSt3mapIPv16_data_access_logSt4lessIS0_ESaISt4pairIKS0_S1_EEED2Ev
FNDA:2,_ZNSt3mapImiSt4lessImESaISt4pairIKmiEEEC2Ev
FNDA:2,_ZNSt3mapIPv16_data_access_logSt4lessIS0_ESaISt4pairIKS0_S1_EEEC2Ev
FNDA:2,_ZNSt3mapImiSt4lessImESaISt4pairIKmiEEE5beginEv
FNDA:1958,_ZNSt3mapImiSt4lessImESaISt4pairIKmiEEE3endEv
FNDA:752,_ZNSt3mapIPv16_data_access_logSt4lessIS0_ESaISt4pairIKS0_S1_EEE3endEv
FNDA:1940,_ZNKSt3mapImiSt4lessImESaISt4pairIKmiEEE5emptyEv
FNDA:4,_ZNKSt3mapIPv16_data_access_logSt4lessIS0_ESaISt4pairIKS0_S1_EEE5emptyEv
FNDA:0,_ZNSt3mapImiSt4lessImESaISt4pairIKmiEEEixERS3_
FNDA:216,_ZNSt3mapImiSt4lessImESaISt4pairIKmiEEE6insertERKS4_
FNDA:346,_ZNSt3mapIPv16_data_access_logSt4lessIS0_ESaISt4pairIKS0_S1_EEE6insertERKS6_
FNDA:0,_ZNSt3mapImiSt4lessImESaISt4pairIKmiEEE6insertESt17_Rb_tree_iteratorIS4_ERKS4_
FNDA:2,_ZNSt3mapImiSt4lessImESaISt4pairIKmiEEE5clearEv
FNDA:2,_ZNSt3mapIPv16_data_access_logSt4lessIS0_ESaISt4pairIKS0_S1_EEE5clearEv
FNDA:0,_ZNKSt3mapImiSt4lessImESaISt4pairIKmiEEE8key_compEv
FNDA:2904,_ZNSt3mapImiSt4lessImESaISt4pairIKmiEEE4findERS3_
FNDA:1158,_ZNSt3mapIPv16_data_access_logSt4lessIS0_ESaISt4pairIKS0_S1_EEE4findERS5_
FNDA:0,_ZNSt3mapImiSt4lessImESaISt4pairIKmiEEE11lower_boundERS3_
FNF:19
FNH:15
BRDA:450,9999,2,-
BRDA:450,9999,3,-
BRDA:450,0,7,-
BRDA:450,0,8,-
BRDA:450,3,9,-
BRDA:450,3,10,-
BRF:6
BRH:0
DA:87,4
DA:150,4
DA:151,4
DA:307,2
DA:308,2
DA:325,2710
DA:326,2710
DA:416,1944
DA:417,1944
DA:443,0
DA:448,0
DA:450,0
DA:451,0
DA:452,0
DA:500,562
DA:501,562
DA:540,0
DA:541,0
DA:663,4
DA:664,4
DA:672,0
DA:673,0
DA:696,4062
DA:697,4062
DA:738,0
DA:739,0
LF:26
LH:15
end_of_record
SF:/usr/include/c++/4.5/bits/stl_pair.h
FN:72,_ZNSt4pairIKmiED2Ev
FN:72,_ZNSt4pairIKPv16_data_access_logED2Ev
FN:72,_ZNSt4pairIKPv16_data_access_logEC2ERKS3_
FN:72,_ZNSt4pairIPv16_data_access_logED2Ev
FN:87,_ZNSt4pairISt17_Rb_tree_iteratorIiEbEC2ERKS1_RKb
FN:87,_ZNSt4pairISt17_Rb_tree_iteratorIS_IKPv16_data_access_logEEbEC2ERKS5_RKb
FN:87,_ZNSt4pairIKmiEC2ERS0_RKi
FN:87,_ZNSt4pairIPv16_data_access_logEC2ERKS0_RKS1_
FN:87,_ZNSt4pairISt17_Rb_tree_iteratorIS_IKmiEEbEC2ERKS3_RKb
FN:87,_ZNSt4pairISt23_Rb_tree_const_iteratorIPvEbEC2ERKS2_RKb
FN:87,_ZNSt4pairImiEC2ERKmRKi
FN:87,_ZNSt4pairISt17_Rb_tree_iteratorIPvEbEC2ERKS2_RKb
FN:87,_ZNSt4pairISt23_Rb_tree_const_iteratorIiEbEC2ERKS1_RKb
FN:87,_ZNSt4pairISt17_Rb_tree_iteratorIiES1_EC2ERKS1_S4_
FN:114,_ZNSt4pairIKPv16_data_access_logEC2IS0_S2_EERKS_IT_T0_E
FN:114,_ZNSt4pairIKmiEC2ImiEERKS_IT_T0_E
FNDA:216,_ZNSt4pairIKmiED2Ev
FNDA:692,_ZNSt4pairIKPv16_data_access_logED2Ev
FNDA:346,_ZNSt4pairIPv16_data_access_logED2Ev
FNDA:346,_ZNSt4pairIKPv16_data_access_logEC2ERKS3_
FNDA:216,_ZNSt4pairImiEC2ERKmRKi
FNDA:0,_ZNSt4pairIKmiEC2ERS0_RKi
FNDA:752,_ZNSt4pairISt23_Rb_tree_const_iteratorIPvEbEC2ERKS2_RKb
FNDA:0,_ZNSt4pairISt23_Rb_tree_const_iteratorIiEbEC2ERKS1_RKb
FNDA:752,_ZNSt4pairISt17_Rb_tree_iteratorIPvEbEC2ERKS2_RKb
FNDA:0,_ZNSt4pairISt17_Rb_tree_iteratorIiEbEC2ERKS1_RKb
FNDA:216,_ZNSt4pairISt17_Rb_tree_iteratorIS_IKmiEEbEC2ERKS3_RKb
FNDA:0,_ZNSt4pairISt17_Rb_tree_iteratorIiES1_EC2ERKS1_S4_
FNDA:346,_ZNSt4pairISt17_Rb_tree_iteratorIS_IKPv16_data_access_logEEbEC2ERKS5_RKb
FNDA:346,_ZNSt4pairIPv16_data_access_logEC2ERKS0_RKS1_
FNDA:216,_ZNSt4pairIKmiEC2ImiEERKS_IT_T0_E
FNDA:346,_ZNSt4pairIKPv16_data_access_logEC2IS0_S2_EERKS_IT_T0_E
FNF:16
FNH:12
DA:72,1600
DA:87,2628
DA:88,2628
DA:114,562
DA:116,562
LF:5
LH:5
end_of_record
SF:/usr/include/c++/4.5/bits/stl_set.h
FN:88,_ZNSt3setIiSt4lessIiESaIiEED2Ev
FN:88,_ZNSt3setIPvSt4lessIS0_ESaIS0_EED2Ev
FN:136,_ZNSt3setIiSt4lessIiESaIiEEC2Ev
FN:136,_ZNSt3setIPvSt4lessIS0_ESaIS0_EEC2Ev
FN:188,_ZNSt3setIiSt4lessIiESaIiEEC2ERKS3_
FN:188,_ZNSt3setIPvSt4lessIS0_ESaIS0_EEC2ERKS4_
FN:227,_ZNSt3setIPvSt4lessIS0_ESaIS0_EEaSERKS4_
FN:292,_ZNKSt3setIiSt4lessIiESaIiEE5beginEv
FN:292,_ZNKSt3setIPvSt4lessIS0_ESaIS0_EE5beginEv
FN:301,_ZNKSt3setIPvSt4lessIS0_ESaIS0_EE3endEv
FN:301,_ZNKSt3setIiSt4lessIiESaIiEE3endEv
FN:362,_ZNKSt3setIiSt4lessIiESaIiEE5emptyEv
FN:367,_ZNKSt3setIiSt4lessIiESaIiEE4sizeEv
FN:405,_ZNSt3setIiSt4lessIiESaIiEE6insertERKi
FN:405,_ZNSt3setIPvSt4lessIS0_ESaIS0_EE6insertERKS0_
FN:446,_ZNSt3setIiSt4lessIiESaIiEE6insertIN9__gnu_cxx17__normal_iteratorIPiSt6vectorIiS2_EEEEEvT_SB_
FN:507,_ZNSt3setIiSt4lessIiESaIiEE5eraseERKi
FN:552,_ZNSt3setIPvSt4lessIS0_ESaIS0_EE5clearEv
FN:584,_ZNSt3setIPvSt4lessIS0_ESaIS0_EE4findERKS0_
FN:584,_ZNSt3setIiSt4lessIiESaIiEE4findERKi
FNDA:1384,_ZNSt3setIiSt4lessIiESaIiEED2Ev
FNDA:1772,_ZNSt3setIPvSt4lessIS0_ESaIS0_EED2Ev
FNDA:432,_ZNSt3setIPvSt4lessIS0_ESaIS0_EEC2Ev
FNDA:346,_ZNSt3setIiSt4lessIiESaIiEEC2Ev
FNDA:1340,_ZNSt3setIPvSt4lessIS0_ESaIS0_EEC2ERKS4_
FNDA:1038,_ZNSt3setIiSt4lessIiESaIiEEC2ERKS3_
FNDA:0,_ZNSt3setIPvSt4lessIS0_ESaIS0_EEaSERKS4_
FNDA:0,_ZNKSt3setIPvSt4lessIS0_ESaIS0_EE5beginEv
FNDA:406,_ZNKSt3setIiSt4lessIiESaIiEE5beginEv
FNDA:0,_ZNKSt3setIPvSt4lessIS0_ESaIS0_EE3endEv
FNDA:0,_ZNKSt3setIiSt4lessIiESaIiEE3endEv
FNDA:406,_ZNKSt3setIiSt4lessIiESaIiEE5emptyEv
FNDA:0,_ZNKSt3setIiSt4lessIiESaIiEE4sizeEv
FNDA:752,_ZNSt3setIPvSt4lessIS0_ESaIS0_EE6insertERKS0_
FNDA:0,_ZNSt3setIiSt4lessIiESaIiEE6insertERKi
FNDA:0,_ZNSt3setIiSt4lessIiESaIiEE6insertIN9__gnu_cxx17__normal_iteratorIPiSt6vectorIiS2_EEEEEvT_SB_
FNDA:0,_ZNSt3setIiSt4lessIiESaIiEE5eraseERKi
FNDA:0,_ZNSt3setIPvSt4lessIS0_ESaIS0_EE5clearEv
FNDA:0,_ZNSt3setIPvSt4lessIS0_ESaIS0_EE4findERKS0_
FNDA:0,_ZNSt3setIiSt4lessIiESaIiEE4findERKi
FNF:20
FNH:9
DA:88,3156
DA:136,778
DA:137,778
DA:188,2378
DA:189,2378
DA:227,0
DA:229,0
DA:230,0
DA:292,406
DA:293,406
DA:301,0
DA:302,0
DA:362,406
DA:363,406
DA:367,0
DA:368,0
DA:405,752
DA:408,752
DA:409,752
DA:446,0
DA:447,0
DA:507,0
DA:508,0
DA:552,0
DA:553,0
DA:584,0
DA:585,0
LF:27
LH:12
end_of_record
SF:/usr/include/c++/4.5/bits/stl_tree.h
FN:98,_ZNSt18_Rb_tree_node_base10_S_minimumEPS_
FN:112,_ZNSt18_Rb_tree_node_base10_S_maximumEPS_
FN:166,_ZNSt17_Rb_tree_iteratorISt4pairIKmiEEC2Ev
FN:170,_ZNSt17_Rb_tree_iteratorIPvEC2EPSt13_Rb_tree_nodeIS0_E
FN:170,_ZNSt17_Rb_tree_iteratorISt4pairIKmiEEC2EPSt13_Rb_tree_nodeIS2_E
FN:170,_ZNSt17_Rb_tree_iteratorIiEC2EPSt13_Rb_tree_nodeIiE
FN:170,_ZNSt17_Rb_tree_iteratorISt4pairIKPv16_data_access_logEEC2EPSt13_Rb_tree_nodeIS4_E
FN:174,_ZNKSt17_Rb_tree_iteratorISt4pairIKmiEEdeEv
FN:178,_ZNKSt17_Rb_tree_iteratorISt4pairIKmiEEptEv
FN:178,_ZNKSt17_Rb_tree_iteratorISt4pairIKPv16_data_access_logEEptEv
FN:189,_ZNSt17_Rb_tree_iteratorIiEppEi
FN:189,_ZNSt17_Rb_tree_iteratorISt4pairIKmiEEppEi
FN:197,_ZNSt17_Rb_tree_iteratorIPvEmmEv
FN:197,_ZNSt17_Rb_tree_iteratorISt4pairIKPv16_data_access_logEEmmEv
FN:197,_ZNSt17_Rb_tree_iteratorISt4pairIKmiEEmmEv
FN:197,_ZNSt17_Rb_tree_iteratorIiEmmEv
FN:212,_ZNKSt17_Rb_tree_iteratorISt4pairIKmiEEeqERKS3_
FN:212,_ZNKSt17_Rb_tree_iteratorISt4pairIKPv16_data_access_logEEeqERKS5_
FN:212,_ZNKSt17_Rb_tree_iteratorIPvEeqERKS1_
FN:212,_ZNKSt17_Rb_tree_iteratorIiEeqERKS0_
FN:216,_ZNKSt17_Rb_tree_iteratorISt4pairIKmiEEneERKS3_
FN:216,_ZNKSt17_Rb_tree_iteratorIiEneERKS0_
FN:238,_ZNSt23_Rb_tree_const_iteratorIiEC2Ev
FN:238,_ZNSt23_Rb_tree_const_iteratorIPvEC2Ev
FN:242,_ZNSt23_Rb_tree_const_iteratorIPvEC2EPKSt13_Rb_tree_nodeIS0_E
FN:242,_ZNSt23_Rb_tree_const_iteratorIiEC2EPKSt13_Rb_tree_nodeIiE
FN:245,_ZNSt23_Rb_tree_const_iteratorIPvEC2ERKSt17_Rb_tree_iteratorIS0_E
FN:245,_ZNSt23_Rb_tree_const_iteratorISt4pairIKmiEEC2ERKSt17_Rb_tree_iteratorIS2_E
FN:245,_ZNSt23_Rb_tree_const_iteratorIiEC2ERKSt17_Rb_tree_iteratorIiE
FN:249,_ZNKSt23_Rb_tree_const_iteratorIiEdeEv
FN:249,_ZNKSt23_Rb_tree_const_iteratorIPvEdeEv
FN:257,_ZNSt23_Rb_tree_const_iteratorISt4pairIKmiEEppEv
FN:257,_ZNSt23_Rb_tree_const_iteratorIiEppEv
FN:264,_ZNSt23_Rb_tree_const_iteratorIiEppEi
FN:264,_ZNSt23_Rb_tree_const_iteratorIPvEppEi
FN:272,_ZNSt23_Rb_tree_const_iteratorISt4pairIKmiEEmmEv
FN:272,_ZNSt23_Rb_tree_const_iteratorIiEmmEv
FN:287,_ZNKSt23_Rb_tree_const_iteratorIiEeqERKS0_
FN:287,_ZNKSt23_Rb_tree_const_iteratorIPvEeqERKS1_
FN:291,_ZNKSt23_Rb_tree_const_iteratorIiEneERKS0_
FN:291,_ZNKSt23_Rb_tree_const_iteratorIPvEneERKS1_
FN:349,_ZNKSt8_Rb_treeIPvSt4pairIKS0_16_data_access_logESt10_Select1stIS4_ESt4lessIS0_ESaIS4_EE21_M_get_Node_allocatorEv
FN:349,_ZNKSt8_Rb_treeImSt4pairIKmiESt10_Select1stIS2_ESt4lessImESaIS2_EE21_M_get_Node_allocatorEv
FN:349,_ZNKSt8_Rb_treeIPvS0_St9_IdentityIS0_ESt4lessIS0_ESaIS0_EE21_M_get_Node_allocatorEv
FN:349,_ZNKSt8_Rb_treeIiiSt9_IdentityIiESt4lessIiESaIiEE21_M_get_Node_allocatorEv
FN:353,_ZNKSt8_Rb_treeIPvSt4pairIKS0_16_data_access_logESt10_Select1stIS4_ESt4lessIS0_ESaIS4_EE13get_allocatorEv
FN:353,_ZNKSt8_Rb_treeImSt4pairIKmiESt10_Select1stIS2_ESt4lessImESaIS2_EE13get_allocatorEv
FN:353,_ZNKSt8_Rb_treeIiiSt9_IdentityIiESt4lessIiESaIiEE13get_allocatorEv
FN:353,_ZNKSt8_Rb_treeIPvS0_St9_IdentityIS0_ESt4lessIS0_ESaIS0_EE13get_allocatorEv
FN:358,_ZNSt8_Rb_treeIPvSt4pairIKS0_16_data_access_logESt10_Select1stIS4_ESt4lessIS0_ESaIS4_EE11_M_get_nodeEv
FN:358,_ZNSt8_Rb_treeIiiSt9_IdentityIiESt4lessIiESaIiEE11_M_get_nodeEv
FN:358,_ZNSt8_Rb_treeIPvS0_St9_IdentityIS0_ESt4lessIS0_ESaIS0_EE11_M_get_nodeEv
FN:358,_ZNSt8_Rb_treeImSt4pairIKmiESt10_Select1stIS2_ESt4lessImESaIS2_EE11_M_get_nodeEv
FN:362,_ZNSt8_Rb_treeImSt4pairIKmiESt10_Select1stIS2_ESt4lessImESaIS2_EE11_M_put_nodeEPSt13_Rb_tree_nodeIS2_E
FN:362,_ZNSt8_Rb_treeIiiSt9_IdentityIiESt4lessIiESaIiEE11_M_put_nodeEPSt13_Rb_tree_nodeIiE
FN:362,_ZNSt8_Rb_treeIPvSt4pairIKS0_16_data_access_logESt10_Select1stIS4_ESt4lessIS0_ESaIS4_EE11_M_put_nodeEPSt13_Rb_tree_nodeIS4_E
FN:362,_ZNSt8_Rb_treeIPvS0_St9_IdentityIS0_ESt4lessIS0_ESaIS0_EE11_M_put_nodeEPSt13_Rb_tree_nodeIS0_E
FN:367,_ZNSt8_Rb_treeImSt4pairIKmiESt10_Select1stIS2_ESt4lessImESaIS2_EE14_M_create_nodeERKS2_
FN:367,_ZNSt8_Rb_treeIiiSt9_IdentityIiESt4lessIiESaIiEE14_M_create_nodeERKi
FN:367,_ZNSt8_Rb_treeIPvSt4pairIKS0_16_data_access_logESt10_Select1stIS4_ESt4lessIS0_ESaIS4_EE14_M_create_nodeERKS4_
FN:367,_ZNSt8_Rb_treeIPvS0_St9_IdentityIS0_ESt4lessIS0_ESaIS0_EE14_M_create_nodeERKS0_
FN:381,_ZNSt8_Rb_treeIPvS0_St9_IdentityIS0_ESt4lessIS0_ESaIS0_EE15_M_destroy_nodeEPSt13_Rb_tree_nodeIS0_E
FN:381,_ZNSt8_Rb_treeIPvSt4pairIKS0_16_data_access_logESt10_Select1stIS4_ESt4lessIS0_ESaIS4_EE15_M_destroy_nodeEPSt13_Rb_tree_nodeIS4_E
FN:381,_ZNSt8_Rb_treeIiiSt9_IdentityIiESt4lessIiESaIiEE15_M_destroy_nodeEPSt13_Rb_tree_nodeIiE
FN:381,_ZNSt8_Rb_treeImSt4pairIKmiESt10_Select1stIS2_ESt4lessImESaIS2_EE15_M_destroy_nodeEPSt13_Rb_tree_nodeIS2_E
FN:414,_ZNSt8_Rb_treeIPvS0_St9_IdentityIS0_ESt4lessIS0_ESaIS0_EE13_M_clone_nodeEPKSt13_Rb_tree_nodeIS0_E
FN:414,_ZNSt8_Rb_treeIiiSt9_IdentityIiESt4lessIiESaIiEE13_M_clone_nodeEPKSt13_Rb_tree_nodeIiE
FN:427,_ZNSt8_Rb_treeImSt4pairIKmiESt10_Select1stIS2_ESt4lessImESaIS2_EE13_Rb_tree_implIS6_Lb0EED2Ev
FN:427,_ZNSt8_Rb_treeIPvS0_St9_IdentityIS0_ESt4lessIS0_ESaIS0_EE13_Rb_tree_implIS4_Lb0EED2Ev
FN:427,_ZNSt8_Rb_treeIPvSt4pairIKS0_16_data_access_logESt10_Select1stIS4_ESt4lessIS0_ESaIS4_EE13_Rb_tree_implIS8_Lb0EED2Ev
FN:427,_ZNSt8_Rb_treeIiiSt9_IdentityIiESt4lessIiESaIiEE13_Rb_tree_implIS3_Lb0EED2Ev
FN:432,_ZNSt8_Rb_treeImSt4pairIKmiESt10_Select1stIS2_ESt4lessImESaIS2_EE13_Rb_tree_implIS6_Lb0EEC2Ev
FN:432,_ZNSt8_Rb_treeIiiSt9_IdentityIiESt4lessIiESaIiEE13_Rb_tree_implIS3_Lb0EEC2Ev
FN:432,_ZNSt8_Rb_treeIPvSt4pairIKS0_16_data_access_logESt10_Select1stIS4_ESt4lessIS0_ESaIS4_EE13_Rb_tree_implIS8_Lb0EEC2Ev
FN:432,_ZNSt8_Rb_treeIPvS0_St9_IdentityIS0_ESt4lessIS0_ESaIS0_EE13_Rb_tree_implIS4_Lb0EEC2Ev
FN:437,_ZNSt8_Rb_treeIPvS0_St9_IdentityIS0_ESt4lessIS0_ESaIS0_EE13_Rb_tree_implIS4_Lb0EEC2ERKS4_RKSaISt13_Rb_tree_nodeIS0_EE
FN:437,_ZNSt8_Rb_treeIiiSt9_IdentityIiESt4lessIiESaIiEE13_Rb_tree_implIS3_Lb0EEC2ERKS3_RKSaISt13_Rb_tree_nodeIiEE
FN:444,_ZNSt8_Rb_treeImSt4pairIKmiESt10_Select1stIS2_ESt4lessImESaIS2_EE13_Rb_tree_implIS6_Lb0EE13_M_initializeEv
FN:444,_ZNSt8_Rb_treeIPvSt4pairIKS0_16_data_access_logESt10_Select1stIS4_ESt4lessIS0_ESaIS4_EE13_Rb_tree_implIS8_Lb0EE13_M_initializeEv
FN:444,_ZNSt8_Rb_treeIiiSt9_IdentityIiESt4lessIiESaIiEE13_Rb_tree_implIS3_Lb0EE13_M_initializeEv
FN:444,_ZNSt8_Rb_treeIPvS0_St9_IdentityIS0_ESt4lessIS0_ESaIS0_EE13_Rb_tree_implIS4_Lb0EE13_M_initializeEv
FN:457,_ZNSt8_Rb_treeIiiSt9_IdentityIiESt4lessIiESaIiEE7_M_rootEv
FN:457,_ZNSt8_Rb_treeIPvSt4pairIKS0_16_data_access_logESt10_Select1stIS4_ESt4lessIS0_ESaIS4_EE7_M_rootEv
FN:457,_ZNSt8_Rb_treeIPvS0_St9_IdentityIS0_ESt4lessIS0_ESaIS0_EE7_M_rootEv
FN:457,_ZNSt8_Rb_treeImSt4pairIKmiESt10_Select1stIS2_ESt4lessImESaIS2_EE7_M_rootEv
FN:461,_ZNKSt8_Rb_treeIiiSt9_IdentityIiESt4lessIiESaIiEE7_M_rootEv
FN:461,_ZNKSt8_Rb_treeIPvS0_St9_IdentityIS0_ESt4lessIS0_ESaIS0_EE7_M_rootEv
FN:465,_ZNSt8_Rb_treeIPvSt4pairIKS0_16_data_access_logESt10_Select1stIS4_ESt4lessIS0_ESaIS4_EE11_M_leftmostEv
FN:465,_ZNSt8_Rb_treeImSt4pairIKmiESt10_Select1stIS2_ESt4lessImESaIS2_EE11_M_leftmostEv
FN:465,_ZNSt8_Rb_treeIiiSt9_IdentityIiESt4lessIiESaIiEE11_M_leftmostEv
FN:465,_ZNSt8_Rb_treeIPvS0_St9_IdentityIS0_ESt4lessIS0_ESaIS0_EE11_M_leftmostEv
FN:473,_ZNSt8_Rb_treeIiiSt9_IdentityIiESt4lessIiESaIiEE12_M_rightmostEv
FN:473,_ZNSt8_Rb_treeIPvS0_St9_IdentityIS0_ESt4lessIS0_ESaIS0_EE12_M_rightmostEv
FN:473,_ZNSt8_Rb_treeIPvSt4pairIKS0_16_data_access_logESt10_Select1stIS4_ESt4lessIS0_ESaIS4_EE12_M_rightmostEv
FN:473,_ZNSt8_Rb_treeImSt4pairIKmiESt10_Select1stIS2_ESt4lessImESaIS2_EE12_M_rightmostEv
FN:481,_ZNSt8_Rb_treeIPvS0_St9_IdentityIS0_ESt4lessIS0_ESaIS0_EE8_M_beginEv
FN:481,_ZNSt8_Rb_treeIiiSt9_IdentityIiESt4lessIiESaIiEE8_M_beginEv
FN:481,_ZNSt8_Rb_treeImSt4pairIKmiESt10_Select1stIS2_ESt4lessImESaIS2_EE8_M_beginEv
FN:481,_ZNSt8_Rb_treeIPvSt4pairIKS0_16_data_access_logESt10_Select1stIS4_ESt4lessIS0_ESaIS4_EE8_M_beginEv
FN:485,_ZNKSt8_Rb_treeIPvS0_St9_IdentityIS0_ESt4lessIS0_ESaIS0_EE8_M_beginEv
FN:485,_ZNKSt8_Rb_treeIiiSt9_IdentityIiESt4lessIiESaIiEE8_M_beginEv
FN:492,_ZNSt8_Rb_treeIPvSt4pairIKS0_16_data_access_logESt10_Select1stIS4_ESt4lessIS0_ESaIS4_EE6_M_endEv
FN:492,_ZNSt8_Rb_treeImSt4pairIKmiESt10_Select1stIS2_ESt4lessImESaIS2_EE6_M_endEv
FN:492,_ZNSt8_Rb_treeIiiSt9_IdentityIiESt4lessIiESaIiEE6_M_endEv
FN:492,_ZNSt8_Rb_treeIPvS0_St9_IdentityIS0_ESt4lessIS0_ESaIS0_EE6_M_endEv
FN:500,_ZNSt8_Rb_treeIPvS0_St9_IdentityIS0_ESt4lessIS0_ESaIS0_EE8_S_valueEPKSt13_Rb_tree_nodeIS0_E
FN:500,_ZNSt8_Rb_treeIiiSt9_IdentityIiESt4lessIiESaIiEE8_S_valueEPKSt13_Rb_tree_nodeIiE
FN:500,_ZNSt8_Rb_treeIPvSt4pairIKS0_16_data_access_logESt10_Select1stIS4_ESt4lessIS0_ESaIS4_EE8_S_valueEPKSt13_Rb_tree_nodeIS4_E
FN:500,_ZNSt8_Rb_treeImSt4pairIKmiESt10_Select1stIS2_ESt4lessImESaIS2_EE8_S_valueEPKSt13_Rb_tree_nodeIS2_E
FN:504,_ZNSt8_Rb_treeIiiSt9_IdentityIiESt4lessIiESaIiEE6_S_keyEPKSt13_Rb_tree_nodeIiE
FN:504,_ZNSt8_Rb_treeIPvS0_St9_IdentityIS0_ESt4lessIS0_ESaIS0_EE6_S_keyEPKSt13_Rb_tree_nodeIS0_E
FN:504,_ZNSt8_Rb_treeIPvSt4pairIKS0_16_data_access_logESt10_Select1stIS4_ESt4lessIS0_ESaIS4_EE6_S_keyEPKSt13_Rb_tree_nodeIS4_E
FN:504,_ZNSt8_Rb_treeImSt4pairIKmiESt10_Select1stIS2_ESt4lessImESaIS2_EE6_S_keyEPKSt13_Rb_tree_nodeIS2_E
FN:508,_ZNSt8_Rb_treeIPvSt4pairIKS0_16_data_access_logESt10_Select1stIS4_ESt4lessIS0_ESaIS4_EE7_S_leftEPSt18_Rb_tree_node_base
FN:508,_ZNSt8_Rb_treeIPvS0_St9_IdentityIS0_ESt4lessIS0_ESaIS0_EE7_S_leftEPSt18_Rb_tree_node_base
FN:508,_ZNSt8_Rb_treeImSt4pairIKmiESt10_Select1stIS2_ESt4lessImESaIS2_EE7_S_leftEPSt18_Rb_tree_node_base
FN:508,_ZNSt8_Rb_treeIiiSt9_IdentityIiESt4lessIiESaIiEE7_S_leftEPSt18_Rb_tree_node_base
FN:512,_ZNSt8_Rb_treeIPvS0_St9_IdentityIS0_ESt4lessIS0_ESaIS0_EE7_S_leftEPKSt18_Rb_tree_node_base
FN:512,_ZNSt8_Rb_treeIiiSt9_IdentityIiESt4lessIiESaIiEE7_S_leftEPKSt18_Rb_tree_node_base
FN:516,_ZNSt8_Rb_treeImSt4pairIKmiESt10_Select1stIS2_ESt4lessImESaIS2_EE8_S_rightEPSt18_Rb_tree_node_base
FN:516,_ZNSt8_Rb_treeIiiSt9_IdentityIiESt4lessIiESaIiEE8_S_rightEPSt18_Rb_tree_node_base
FN:516,_ZNSt8_Rb_treeIPvS0_St9_IdentityIS0_ESt4lessIS0_ESaIS0_EE8_S_rightEPSt18_Rb_tree_node_base
FN:516,_ZNSt8_Rb_treeIPvSt4pairIKS0_16_data_access_logESt10_Select1stIS4_ESt4lessIS0_ESaIS4_EE8_S_rightEPSt18_Rb_tree_node_base
FN:520,_ZNSt8_Rb_treeIiiSt9_IdentityIiESt4lessIiESaIiEE8_S_rightEPKSt18_Rb_tree_node_base
FN:520,_ZNSt8_Rb_treeImSt4pairIKmiESt10_Select1stIS2_ESt4lessImESaIS2_EE8_S_rightEPKSt18_Rb_tree_node_base
FN:520,_ZNSt8_Rb_treeIPvS0_St9_IdentityIS0_ESt4lessIS0_ESaIS0_EE8_S_rightEPKSt18_Rb_tree_node_base
FN:524,_ZNSt8_Rb_treeImSt4pairIKmiESt10_Select1stIS2_ESt4lessImESaIS2_EE8_S_valueEPKSt18_Rb_tree_node_base
FN:524,_ZNSt8_Rb_treeIPvS0_St9_IdentityIS0_ESt4lessIS0_ESaIS0_EE8_S_valueEPKSt18_Rb_tree_node_base
FN:524,_ZNSt8_Rb_treeIPvSt4pairIKS0_16_data_access_logESt10_Select1stIS4_ESt4lessIS0_ESaIS4_EE8_S_valueEPKSt18_Rb_tree_node_base
FN:524,_ZNSt8_Rb_treeIiiSt9_IdentityIiESt4lessIiESaIiEE8_S_valueEPKSt18_Rb_tree_node_base
FN:528,_ZNSt8_Rb_treeIPvS0_St9_IdentityIS0_ESt4lessIS0_ESaIS0_EE6_S_keyEPKSt18_Rb_tree_node_base
FN:528,_ZNSt8_Rb_treeIiiSt9_IdentityIiESt4lessIiESaIiEE6_S_keyEPKSt18_Rb_tree_node_base
FN:528,_ZNSt8_Rb_treeImSt4pairIKmiESt10_Select1stIS2_ESt4lessImESaIS2_EE6_S_keyEPKSt18_Rb_tree_node_base
FN:528,_ZNSt8_Rb_treeIPvSt4pairIKS0_16_data_access_logESt10_Select1stIS4_ESt4lessIS0_ESaIS4_EE6_S_keyEPKSt18_Rb_tree_node_base
FN:532,_ZNSt8_Rb_treeIiiSt9_IdentityIiESt4lessIiESaIiEE10_S_minimumEPSt18_Rb_tree_node_base
FN:532,_ZNSt8_Rb_treeIPvS0_St9_IdentityIS0_ESt4lessIS0_ESaIS0_EE10_S_minimumEPSt18_Rb_tree_node_base
FN:540,_ZNSt8_Rb_treeIPvS0_St9_IdentityIS0_ESt4lessIS0_ESaIS0_EE10_S_maximumEPSt18_Rb_tree_node_base
FN:540,_ZNSt8_Rb_treeIiiSt9_IdentityIiESt4lessIiESaIiEE10_S_maximumEPSt18_Rb_tree_node_base
FN:591,_ZNSt8_Rb_treeIPvSt4pairIKS0_16_data_access_logESt10_Select1stIS4_ESt4lessIS0_ESaIS4_EEC2Ev
FN:591,_ZNSt8_Rb_treeIiiSt9_IdentityIiESt4lessIiESaIiEEC2Ev
FN:591,_ZNSt8_Rb_treeIPvS0_St9_IdentityIS0_ESt4lessIS0_ESaIS0_EEC2Ev
FN:591,_ZNSt8_Rb_treeImSt4pairIKmiESt10_Select1stIS2_ESt4lessImESaIS2_EEC2Ev
FN:597,_ZNSt8_Rb_treeIiiSt9_IdentityIiESt4lessIiESaIiEEC2ERKS5_
FN:597,_ZNSt8_Rb_treeIPvS0_St9_IdentityIS0_ESt4lessIS0_ESaIS0_EEC2ERKS6_
FN:613,_ZNSt8_Rb_treeImSt4pairIKmiESt10_Select1stIS2_ESt4lessImESaIS2_EED2Ev
FN:613,_ZNSt8_Rb_treeIiiSt9_IdentityIiESt4lessIiESaIiEED2Ev
FN:613,_ZNSt8_Rb_treeIPvS0_St9_IdentityIS0_ESt4lessIS0_ESaIS0_EED2Ev
FN:613,_ZNSt8_Rb_treeIPvSt4pairIKS0_16_data_access_logESt10_Select1stIS4_ESt4lessIS0_ESaIS4_EED2Ev
FN:621,_ZNKSt8_Rb_treeImSt4pairIKmiESt10_Select1stIS2_ESt4lessImESaIS2_EE8key_compEv
FN:625,_ZNSt8_Rb_treeIPvSt4pairIKS0_16_data_access_logESt10_Select1stIS4_ESt4lessIS0_ESaIS4_EE5beginEv
FN:625,_ZNSt8_Rb_treeImSt4pairIKmiESt10_Select1stIS2_ESt4lessImESaIS2_EE5beginEv
FN:625,_ZNSt8_Rb_treeIiiSt9_IdentityIiESt4lessIiESaIiEE5beginEv
FN:625,_ZNSt8_Rb_treeIPvS0_St9_IdentityIS0_ESt4lessIS0_ESaIS0_EE5beginEv
FN:632,_ZNKSt8_Rb_treeIiiSt9_IdentityIiESt4lessIiESaIiEE5beginEv
FN:632,_ZNKSt8_Rb_treeIPvS0_St9_IdentityIS0_ESt4lessIS0_ESaIS0_EE5beginEv
FN:639,_ZNSt8_Rb_treeIPvSt4pairIKS0_16_data_access_logESt10_Select1stIS4_ESt4lessIS0_ESaIS4_EE3endEv
FN:639,_ZNSt8_Rb_treeIPvS0_St9_IdentityIS0_ESt4lessIS0_ESaIS0_EE3endEv
FN:639,_ZNSt8_Rb_treeImSt4pairIKmiESt10_Select1stIS2_ESt4lessImESaIS2_EE3endEv
FN:639,_ZNSt8_Rb_treeIiiSt9_IdentityIiESt4lessIiESaIiEE3endEv
FN:643,_ZNKSt8_Rb_treeIiiSt9_IdentityIiESt4lessIiESaIiEE3endEv
FN:643,_ZNKSt8_Rb_treeIPvS0_St9_IdentityIS0_ESt4lessIS0_ESaIS0_EE3endEv
FN:666,_ZNKSt8_Rb_treeIiiSt9_IdentityIiESt4lessIiESaIiEE5emptyEv
FN:666,_ZNKSt8_Rb_treeImSt4pairIKmiESt10_Select1stIS2_ESt4lessImESaIS2_EE5emptyEv
FN:666,_ZNKSt8_Rb_treeIPvSt4pairIKS0_16_data_access_logESt10_Select1stIS4_ESt4lessIS0_ESaIS4_EE5emptyEv
FN:670,_ZNKSt8_Rb_treeImSt4pairIKmiESt10_Select1stIS2_ESt4lessImESaIS2_EE4sizeEv
FN:670,_ZNKSt8_Rb_treeIiiSt9_IdentityIiESt4lessIiESaIiEE4sizeEv
FN:742,_ZNSt8_Rb_treeIPvSt4pairIKS0_16_data_access_logESt10_Select1stIS4_ESt4lessIS0_ESaIS4_EE5clearEv
FN:742,_ZNSt8_Rb_treeIPvS0_St9_IdentityIS0_ESt4lessIS0_ESaIS0_EE5clearEv
FN:742,_ZNSt8_Rb_treeImSt4pairIKmiESt10_Select1stIS2_ESt4lessImESaIS2_EE5clearEv
FN:742,_ZNSt8_Rb_treeIiiSt9_IdentityIiESt4lessIiESaIiEE5clearEv
FN:762,_ZNSt8_Rb_treeImSt4pairIKmiESt10_Select1stIS2_ESt4lessImESaIS2_EE11lower_boundERS1_
FN:870,_ZNSt8_Rb_treeIPvS0_St9_IdentityIS0_ESt4lessIS0_ESaIS0_EEaSERKS6_
FN:892,_ZNSt8_Rb_treeIPvS0_St9_IdentityIS0_ESt4lessIS0_ESaIS0_EE10_M_insert_EPKSt18_Rb_tree_node_baseS9_RKS0_
FN:892,_ZNSt8_Rb_treeIPvSt4pairIKS0_16_data_access_logESt10_Select1stIS4_ESt4lessIS0_ESaIS4_EE10_M_insert_EPKSt18_Rb_tree_node_baseSD_RKS4_
FN:892,_ZNSt8_Rb_treeImSt4pairIKmiESt10_Select1stIS2_ESt4lessImESaIS2_EE10_M_insert_EPKSt18_Rb_tree_node_baseSB_RKS2_
FN:892,_ZNSt8_Rb_treeIiiSt9_IdentityIiESt4lessIiESaIiEE10_M_insert_EPKSt18_Rb_tree_node_baseS8_RKi
FN:946,_ZNSt8_Rb_treeIiiSt9_IdentityIiESt4lessIiESaIiEE7_M_copyEPKSt13_Rb_tree_nodeIiEPS7_
FN:946,_ZNSt8_Rb_treeIPvS0_St9_IdentityIS0_ESt4lessIS0_ESaIS0_EE7_M_copyEPKSt13_Rb_tree_nodeIS0_EPS8_
FN:982,_ZNSt8_Rb_treeIPvSt4pairIKS0_16_data_access_logESt10_Select1stIS4_ESt4lessIS0_ESaIS4_EE8_M_eraseEPSt13_Rb_tree_nodeIS4_E
FN:982,_ZNSt8_Rb_treeImSt4pairIKmiESt10_Select1stIS2_ESt4lessImESaIS2_EE8_M_eraseEPSt13_Rb_tree_nodeIS2_E
FN:982,_ZNSt8_Rb_treeIiiSt9_IdentityIiESt4lessIiESaIiEE8_M_eraseEPSt13_Rb_tree_nodeIiE
FN:982,_ZNSt8_Rb_treeIPvS0_St9_IdentityIS0_ESt4lessIS0_ESaIS0_EE8_M_eraseEPSt13_Rb_tree_nodeIS0_E
FN:999,_ZNSt8_Rb_treeIPvS0_St9_IdentityIS0_ESt4lessIS0_ESaIS0_EE14_M_lower_boundEPSt13_Rb_tree_nodeIS0_ES9_RKS0_
FN:999,_ZNSt8_Rb_treeIiiSt9_IdentityIiESt4lessIiESaIiEE14_M_lower_boundEPSt13_Rb_tree_nodeIiES8_RKi
FN:999,_ZNSt8_Rb_treeIPvSt4pairIKS0_16_data_access_logESt10_Select1stIS4_ESt4lessIS0_ESaIS4_EE14_M_lower_boundEPSt13_Rb_tree_nodeIS4_ESD_RS2_
FN:999,_ZNSt8_Rb_treeImSt4pairIKmiESt10_Select1stIS2_ESt4lessImESaIS2_EE14_M_lower_boundEPSt13_Rb_tree_nodeIS2_ESB_RS1_
FN:1031,_ZNSt8_Rb_treeIiiSt9_IdentityIiESt4lessIiESaIiEE14_M_upper_boundEPSt13_Rb_tree_nodeIiES8_RKi
FN:1065,_ZNSt8_Rb_treeIiiSt9_IdentityIiESt4lessIiESaIiEE11equal_rangeERKi
FN:1175,_ZNSt8_Rb_treeImSt4pairIKmiESt10_Select1stIS2_ESt4lessImESaIS2_EE16_M_insert_uniqueERKS2_
FN:1175,_ZNSt8_Rb_treeIPvS0_St9_IdentityIS0_ESt4lessIS0_ESaIS0_EE16_M_insert_uniqueERKS0_
FN:1175,_ZNSt8_Rb_treeIPvSt4pairIKS0_16_data_access_logESt10_Select1stIS4_ESt4lessIS0_ESaIS4_EE16_M_insert_uniqueERKS4_
FN:1175,_ZNSt8_Rb_treeIiiSt9_IdentityIiESt4lessIiESaIiEE16_M_insert_uniqueERKi
FN:1220,_ZNSt8_Rb_treeImSt4pairIKmiESt10_Select1stIS2_ESt4lessImESaIS2_EE17_M_insert_unique_ESt23_Rb_tree_const_iteratorIS2_ERKS2_
FN:1220,_ZNSt8_Rb_treeIiiSt9_IdentityIiESt4lessIiESaIiEE17_M_insert_unique_ESt23_Rb_tree_const_iteratorIiERKi
FN:1334,_ZNSt8_Rb_treeIiiSt9_IdentityIiESt4lessIiESaIiEE16_M_insert_uniqueIN9__gnu_cxx17__normal_iteratorIPiSt6vectorIiS4_EEEEEvT_SD_
FN:1394,_ZNSt8_Rb_treeIiiSt9_IdentityIiESt4lessIiESaIiEE5eraseESt17_Rb_tree_iteratorIiE
FN:1423,_ZNSt8_Rb_treeIiiSt9_IdentityIiESt4lessIiESaIiEE5eraseERKi
FN:1478,_ZNSt8_Rb_treeIiiSt9_IdentityIiESt4lessIiESaIiEE5eraseESt17_Rb_tree_iteratorIiES7_
FN:1516,_ZNSt8_Rb_treeIPvSt4pairIKS0_16_data_access_logESt10_Select1stIS4_ESt4lessIS0_ESaIS4_EE4findERS2_
FN:1516,_ZNSt8_Rb_treeIPvS0_St9_IdentityIS0_ESt4lessIS0_ESaIS0_EE4findERKS0_
FN:1516,_ZNSt8_Rb_treeImSt4pairIKmiESt10_Select1stIS2_ESt4lessImESaIS2_EE4findERS1_
FN:1516,_ZNSt8_Rb_treeIiiSt9_IdentityIiESt4lessIiESaIiEE4findERKi
FNDA:89,_ZNSt18_Rb_tree_node_base10_S_minimumEPS_
FNDA:89,_ZNSt18_Rb_tree_node_base10_S_maximumEPS_
FNDA:2,_ZNSt17_Rb_tree_iteratorISt4pairIKmiEEC2Ev
FNDA:8620,_ZNSt17_Rb_tree_iteratorISt4pairIKmiEEC2EPSt13_Rb_tree_nodeIS2_E
FNDA:1620,_ZNSt17_Rb_tree_iteratorIPvEC2EPSt13_Rb_tree_nodeIS0_E
FNDA:0,_ZNSt17_Rb_tree_iteratorIiEC2EPSt13_Rb_tree_nodeIiE
FNDA:4197,_ZNSt17_Rb_tree_iteratorISt4pairIKPv16_data_access_logEEC2EPSt13_Rb_tree_nodeIS4_E
FNDA:0,_ZNKSt17_Rb_tree_iteratorISt4pairIKmiEEdeEv
FNDA:988,_ZNKSt17_Rb_tree_iteratorISt4pairIKmiEEptEv
FNDA:406,_ZNKSt17_Rb_tree_iteratorISt4pairIKPv16_data_access_logEEptEv
FNDA:20,_ZNSt17_Rb_tree_iteratorISt4pairIKmiEEppEi
FNDA:0,_ZNSt17_Rb_tree_iteratorIiEppEi
FNDA:0,_ZNSt17_Rb_tree_iteratorIPvEmmEv
FNDA:0,_ZNSt17_Rb_tree_iteratorIiEmmEv
FNDA:11,_ZNSt17_Rb_tree_iteratorISt4pairIKmiEEmmEv
FNDA:79,_ZNSt17_Rb_tree_iteratorISt4pairIKPv16_data_access_logEEmmEv
FNDA:3320,_ZNKSt17_Rb_tree_iteratorISt4pairIKmiEEeqERKS3_
FNDA:2001,_ZNKSt17_Rb_tree_iteratorISt4pairIKPv16_data_access_logEEeqERKS5_
FNDA:116,_ZNKSt17_Rb_tree_iteratorIPvEeqERKS1_
FNDA:0,_ZNKSt17_Rb_tree_iteratorIiEeqERKS0_
FNDA:1746,_ZNKSt17_Rb_tree_iteratorISt4pairIKmiEEneERKS3_
FNDA:0,_ZNKSt17_Rb_tree_iteratorIiEneERKS0_
FNDA:0,_ZNSt23_Rb_tree_const_iteratorIPvEC2Ev
FNDA:0,_ZNSt23_Rb_tree_const_iteratorIiEC2Ev
FNDA:0,_ZNSt23_Rb_tree_const_iteratorIPvEC2EPKSt13_Rb_tree_nodeIS0_E
FNDA:406,_ZNSt23_Rb_tree_const_iteratorIiEC2EPKSt13_Rb_tree_nodeIiE
FNDA:752,_ZNSt23_Rb_tree_const_iteratorIPvEC2ERKSt17_Rb_tree_iteratorIS0_E
FNDA:0,_ZNSt23_Rb_tree_const_iteratorIiEC2ERKSt17_Rb_tree_iteratorIiE
FNDA:0,_ZNSt23_Rb_tree_const_iteratorISt4pairIKmiEEC2ERKSt17_Rb_tree_iteratorIS2_E
FNDA:0,_ZNKSt23_Rb_tree_const_iteratorIPvEdeEv
FNDA:0,_ZNKSt23_Rb_tree_const_iteratorIiEdeEv
FNDA:0,_ZNSt23_Rb_tree_const_iteratorISt4pairIKmiEEppEv
FNDA:0,_ZNSt23_Rb_tree_const_iteratorIiEppEv
FNDA:0,_ZNSt23_Rb_tree_const_iteratorIPvEppEi
FNDA:0,_ZNSt23_Rb_tree_const_iteratorIiEppEi
FNDA:0,_ZNSt23_Rb_tree_const_iteratorISt4pairIKmiEEmmEv
FNDA:0,_ZNSt23_Rb_tree_const_iteratorIiEmmEv
FNDA:0,_ZNKSt23_Rb_tree_const_iteratorIPvEeqERKS1_
FNDA:0,_ZNKSt23_Rb_tree_const_iteratorIiEeqERKS0_
FNDA:0,_ZNKSt23_Rb_tree_const_iteratorIPvEneERKS1_
FNDA:0,_ZNKSt23_Rb_tree_const_iteratorIiEneERKS0_
FNDA:4260,_ZNKSt8_Rb_treeIPvS0_St9_IdentityIS0_ESt4lessIS0_ESaIS0_EE21_M_get_Node_allocatorEv
FNDA:432,_ZNKSt8_Rb_treeImSt4pairIKmiESt10_Select1stIS2_ESt4lessImESaIS2_EE21_M_get_Node_allocatorEv
FNDA:1038,_ZNKSt8_Rb_treeIiiSt9_IdentityIiESt4lessIiESaIiEE21_M_get_Node_allocatorEv
FNDA:692,_ZNKSt8_Rb_treeIPvSt4pairIKS0_16_data_access_logESt10_Select1stIS4_ESt4lessIS0_ESaIS4_EE21_M_get_Node_allocatorEv
FNDA:0,_ZNKSt8_Rb_treeIiiSt9_IdentityIiESt4lessIiESaIiEE13get_allocatorEv
FNDA:2920,_ZNKSt8_Rb_treeIPvS0_St9_IdentityIS0_ESt4lessIS0_ESaIS0_EE13get_allocatorEv
FNDA:432,_ZNKSt8_Rb_treeImSt4pairIKmiESt10_Select1stIS2_ESt4lessImESaIS2_EE13get_allocatorEv
FNDA:692,_ZNKSt8_Rb_treeIPvSt4pairIKS0_16_data_access_logESt10_Select1stIS4_ESt4lessIS0_ESaIS4_EE13get_allocatorEv
FNDA:1460,_ZNSt8_Rb_treeIPvS0_St9_IdentityIS0_ESt4lessIS0_ESaIS0_EE11_M_get_nodeEv
FNDA:0,_ZNSt8_Rb_treeIiiSt9_IdentityIiESt4lessIiESaIiEE11_M_get_nodeEv
FNDA:216,_ZNSt8_Rb_treeImSt4pairIKmiESt10_Select1stIS2_ESt4lessImESaIS2_EE11_M_get_nodeEv
FNDA:346,_ZNSt8_Rb_treeIPvSt4pairIKS0_16_data_access_logESt10_Select1stIS4_ESt4lessIS0_ESaIS4_EE11_M_get_nodeEv
FNDA:1460,_ZNSt8_Rb_treeIPvS0_St9_IdentityIS0_ESt4lessIS0_ESaIS0_EE11_M_put_nodeEPSt13_Rb_tree_nodeIS0_E
FNDA:216,_ZNSt8_Rb_treeImSt4pairIKmiESt10_Select1stIS2_ESt4lessImESaIS2_EE11_M_put_nodeEPSt13_Rb_tree_nodeIS2_E
FNDA:0,_ZNSt8_Rb_treeIiiSt9_IdentityIiESt4lessIiESaIiEE11_M_put_nodeEPSt13_Rb_tree_nodeIiE
FNDA:346,_ZNSt8_Rb_treeIPvSt4pairIKS0_16_data_access_logESt10_Select1stIS4_ESt4lessIS0_ESaIS4_EE11_M_put_nodeEPSt13_Rb_tree_nodeIS4_E
FNDA:1460,_ZNSt8_Rb_treeIPvS0_St9_IdentityIS0_ESt4lessIS0_ESaIS0_EE14_M_create_nodeERKS0_
FNDA:0,_ZNSt8_Rb_treeIiiSt9_IdentityIiESt4lessIiESaIiEE14_M_create_nodeERKi
FNDA:216,_ZNSt8_Rb_treeImSt4pairIKmiESt10_Select1stIS2_ESt4lessImESaIS2_EE14_M_create_nodeERKS2_
FNDA:346,_ZNSt8_Rb_treeIPvSt4pairIKS0_16_data_access_logESt10_Select1stIS4_ESt4lessIS0_ESaIS4_EE14_M_create_nodeERKS4_
FNDA:0,_ZNSt8_Rb_treeIiiSt9_IdentityIiESt4lessIiESaIiEE15_M_destroy_nodeEPSt13_Rb_tree_nodeIiE
FNDA:1460,_ZNSt8_Rb_treeIPvS0_St9_IdentityIS0_ESt4lessIS0_ESaIS0_EE15_M_destroy_nodeEPSt13_Rb_tree_nodeIS0_E
FNDA:216,_ZNSt8_Rb_treeImSt4pairIKmiESt10_Select1stIS2_ESt4lessImESaIS2_EE15_M_destroy_nodeEPSt13_Rb_tree_nodeIS2_E
FNDA:346,_ZNSt8_Rb_treeIPvSt4pairIKS0_16_data_access_logESt10_Select1stIS4_ESt4lessIS0_ESaIS4_EE15_M_destroy_nodeEPSt13_Rb_tree_nodeIS4_E
FNDA:708,_ZNSt8_Rb_treeIPvS0_St9_IdentityIS0_ESt4lessIS0_ESaIS0_EE13_M_clone_nodeEPKSt13_Rb_tree_nodeIS0_E
FNDA:0,_ZNSt8_Rb_treeIiiSt9_IdentityIiESt4lessIiESaIiEE13_M_clone_nodeEPKSt13_Rb_tree_nodeIiE
FNDA:1772,_ZNSt8_Rb_treeIPvS0_St9_IdentityIS0_ESt4lessIS0_ESaIS0_EE13_Rb_tree_implIS4_Lb0EED2Ev
FNDA:2,_ZNSt8_Rb_treeImSt4pairIKmiESt10_Select1stIS2_ESt4lessImESaIS2_EE13_Rb_tree_implIS6_Lb0EED2Ev
FNDA:1384,_ZNSt8_Rb_treeIiiSt9_IdentityIiESt4lessIiESaIiEE13_Rb_tree_implIS3_Lb0EED2Ev
FNDA:2,_ZNSt8_Rb_treeIPvSt4pairIKS0_16_data_access_logESt10_Select1stIS4_ESt4lessIS0_ESaIS4_EE13_Rb_tree_implIS8_Lb0EED2Ev
FNDA:432,_ZNSt8_Rb_treeIPvS0_St9_IdentityIS0_ESt4lessIS0_ESaIS0_EE13_Rb_tree_implIS4_Lb0EEC2Ev
FNDA:2,_ZNSt8_Rb_treeImSt4pairIKmiESt10_Select1stIS2_ESt4lessImESaIS2_EE13_Rb_tree_implIS6_Lb0EEC2Ev
FNDA:346,_ZNSt8_Rb_treeIiiSt9_IdentityIiESt4lessIiESaIiEE13_Rb_tree_implIS3_Lb0EEC2Ev
FNDA:2,_ZNSt8_Rb_treeIPvSt4pairIKS0_16_data_access_logESt10_Select1stIS4_ESt4lessIS0_ESaIS4_EE13_Rb_tree_implIS8_Lb0EEC2Ev
FNDA:1340,_ZNSt8_Rb_treeIPvS0_St9_IdentityIS0_ESt4lessIS0_ESaIS0_EE13_Rb_tree_implIS4_Lb0EEC2ERKS4_RKSaISt13_Rb_tree_nodeIS0_EE
FNDA:1038,_ZNSt8_Rb_treeIiiSt9_IdentityIiESt4lessIiESaIiEE13_Rb_tree_implIS3_Lb0EEC2ERKS3_RKSaISt13_Rb_tree_nodeIiEE
FNDA:1772,_ZNSt8_Rb_treeIPvS0_St9_IdentityIS0_ESt4lessIS0_ESaIS0_EE13_Rb_tree_implIS4_Lb0EE13_M_initializeEv
FNDA:2,_ZNSt8_Rb_treeImSt4pairIKmiESt10_Select1stIS2_ESt4lessImESaIS2_EE13_Rb_tree_implIS6_Lb0EE13_M_initializeEv
FNDA:1384,_ZNSt8_Rb_treeIiiSt9_IdentityIiESt4lessIiESaIiEE13_Rb_tree_implIS3_Lb0EE13_M_initializeEv
FNDA:2,_ZNSt8_Rb_treeIPvSt4pairIKS0_16_data_access_logESt10_Select1stIS4_ESt4lessIS0_ESaIS4_EE13_Rb_tree_implIS8_Lb0EE13_M_initializeEv
FNDA:2,_ZNSt8_Rb_treeImSt4pairIKmiESt10_Select1stIS2_ESt4lessImESaIS2_EE7_M_rootEv
FNDA:267,_ZNSt8_Rb_treeIPvS0_St9_IdentityIS0_ESt4lessIS0_ESaIS0_EE7_M_rootEv
FNDA:2,_ZNSt8_Rb_treeIPvSt4pairIKS0_16_data_access_logESt10_Select1stIS4_ESt4lessIS0_ESaIS4_EE7_M_rootEv
FNDA:0,_ZNSt8_Rb_treeIiiSt9_IdentityIiESt4lessIiESaIiEE7_M_rootEv
FNDA:1340,_ZNKSt8_Rb_treeIPvS0_St9_IdentityIS0_ESt4lessIS0_ESaIS0_EE7_M_rootEv
FNDA:1038,_ZNKSt8_Rb_treeIiiSt9_IdentityIiESt4lessIiESaIiEE7_M_rootEv
FNDA:2,_ZNSt8_Rb_treeImSt4pairIKmiESt10_Select1stIS2_ESt4lessImESaIS2_EE11_M_leftmostEv
FNDA:89,_ZNSt8_Rb_treeIPvS0_St9_IdentityIS0_ESt4lessIS0_ESaIS0_EE11_M_leftmostEv
FNDA:2,_ZNSt8_Rb_treeIPvSt4pairIKS0_16_data_access_logESt10_Select1stIS4_ESt4lessIS0_ESaIS4_EE11_M_leftmostEv
FNDA:0,_ZNSt8_Rb_treeIiiSt9_IdentityIiESt4lessIiESaIiEE11_M_leftmostEv
FNDA:2,_ZNSt8_Rb_treeImSt4pairIKmiESt10_Select1stIS2_ESt4lessImESaIS2_EE12_M_rightmostEv
FNDA:89,_ZNSt8_Rb_treeIPvS0_St9_IdentityIS0_ESt4lessIS0_ESaIS0_EE12_M_rightmostEv
FNDA:2,_ZNSt8_Rb_treeIPvSt4pairIKS0_16_data_access_logESt10_Select1stIS4_ESt4lessIS0_ESaIS4_EE12_M_rightmostEv
FNDA:0,_ZNSt8_Rb_treeIiiSt9_IdentityIiESt4lessIiESaIiEE12_M_rightmostEv
FNDA:2524,_ZNSt8_Rb_treeIPvS0_St9_IdentityIS0_ESt4lessIS0_ESaIS0_EE8_M_beginEv
FNDA:3124,_ZNSt8_Rb_treeImSt4pairIKmiESt10_Select1stIS2_ESt4lessImESaIS2_EE8_M_beginEv
FNDA:1384,_ZNSt8_Rb_treeIiiSt9_IdentityIiESt4lessIiESaIiEE8_M_beginEv
FNDA:1508,_ZNSt8_Rb_treeIPvSt4pairIKS0_16_data_access_logESt10_Select1stIS4_ESt4lessIS0_ESaIS4_EE8_M_beginEv
FNDA:89,_ZNKSt8_Rb_treeIPvS0_St9_IdentityIS0_ESt4lessIS0_ESaIS0_EE8_M_beginEv
FNDA:0,_ZNKSt8_Rb_treeIiiSt9_IdentityIiESt4lessIiESaIiEE8_M_beginEv
FNDA:3340,_ZNSt8_Rb_treeImSt4pairIKmiESt10_Select1stIS2_ESt4lessImESaIS2_EE6_M_endEv
FNDA:1593,_ZNSt8_Rb_treeIPvS0_St9_IdentityIS0_ESt4lessIS0_ESaIS0_EE6_M_endEv
FNDA:0,_ZNSt8_Rb_treeIiiSt9_IdentityIiESt4lessIiESaIiEE6_M_endEv
FNDA:1854,_ZNSt8_Rb_treeIPvSt4pairIKS0_16_data_access_logESt10_Select1stIS4_ESt4lessIS0_ESaIS4_EE6_M_endEv
FNDA:2382,_ZNSt8_Rb_treeIPvS0_St9_IdentityIS0_ESt4lessIS0_ESaIS0_EE8_S_valueEPKSt13_Rb_tree_nodeIS0_E
FNDA:0,_ZNSt8_Rb_treeIiiSt9_IdentityIiESt4lessIiESaIiEE8_S_valueEPKSt13_Rb_tree_nodeIiE
FNDA:16531,_ZNSt8_Rb_treeImSt4pairIKmiESt10_Select1stIS2_ESt4lessImESaIS2_EE8_S_valueEPKSt13_Rb_tree_nodeIS2_E
FNDA:9206,_ZNSt8_Rb_treeIPvSt4pairIKS0_16_data_access_logESt10_Select1stIS4_ESt4lessIS0_ESaIS4_EE8_S_valueEPKSt13_Rb_tree_nodeIS4_E
FNDA:2382,_ZNSt8_Rb_treeIPvS0_St9_IdentityIS0_ESt4lessIS0_ESaIS0_EE6_S_keyEPKSt13_Rb_tree_nodeIS0_E
FNDA:0,_ZNSt8_Rb_treeIiiSt9_IdentityIiESt4lessIiESaIiEE6_S_keyEPKSt13_Rb_tree_nodeIiE
FNDA:16531,_ZNSt8_Rb_treeImSt4pairIKmiESt10_Select1stIS2_ESt4lessImESaIS2_EE6_S_keyEPKSt13_Rb_tree_nodeIS2_E
FNDA:9206,_ZNSt8_Rb_treeIPvSt4pairIKS0_16_data_access_logESt10_Select1stIS4_ESt4lessIS0_ESaIS4_EE6_S_keyEPKSt13_Rb_tree_nodeIS4_E
FNDA:1460,_ZNSt8_Rb_treeIPvS0_St9_IdentityIS0_ESt4lessIS0_ESaIS0_EE7_S_leftEPSt18_Rb_tree_node_base
FNDA:9205,_ZNSt8_Rb_treeImSt4pairIKmiESt10_Select1stIS2_ESt4lessImESaIS2_EE7_S_leftEPSt18_Rb_tree_node_base
FNDA:0,_ZNSt8_Rb_treeIiiSt9_IdentityIiESt4lessIiESaIiEE7_S_leftEPSt18_Rb_tree_node_base
FNDA:3738,_ZNSt8_Rb_treeIPvSt4pairIKS0_16_data_access_logESt10_Select1stIS4_ESt4lessIS0_ESaIS4_EE7_S_leftEPSt18_Rb_tree_node_base
FNDA:708,_ZNSt8_Rb_treeIPvS0_St9_IdentityIS0_ESt4lessIS0_ESaIS0_EE7_S_leftEPKSt18_Rb_tree_node_base
FNDA:0,_ZNSt8_Rb_treeIiiSt9_IdentityIiESt4lessIiESaIiEE7_S_leftEPKSt18_Rb_tree_node_base
FNDA:3842,_ZNSt8_Rb_treeIPvS0_St9_IdentityIS0_ESt4lessIS0_ESaIS0_EE8_S_rightEPSt18_Rb_tree_node_base
FNDA:7758,_ZNSt8_Rb_treeImSt4pairIKmiESt10_Select1stIS2_ESt4lessImESaIS2_EE8_S_rightEPSt18_Rb_tree_node_base
FNDA:0,_ZNSt8_Rb_treeIiiSt9_IdentityIiESt4lessIiESaIiEE8_S_rightEPSt18_Rb_tree_node_base
FNDA:6160,_ZNSt8_Rb_treeIPvSt4pairIKS0_16_data_access_logESt10_Select1stIS4_ESt4lessIS0_ESaIS4_EE8_S_rightEPSt18_Rb_tree_node_base
FNDA:0,_ZNSt8_Rb_treeImSt4pairIKmiESt10_Select1stIS2_ESt4lessImESaIS2_EE8_S_rightEPKSt18_Rb_tree_node_base
FNDA:335,_ZNSt8_Rb_treeIPvS0_St9_IdentityIS0_ESt4lessIS0_ESaIS0_EE8_S_rightEPKSt18_Rb_tree_node_base
FNDA:0,_ZNSt8_Rb_treeIiiSt9_IdentityIiESt4lessIiESaIiEE8_S_rightEPKSt18_Rb_tree_node_base
FNDA:1272,_ZNSt8_Rb_treeIPvS0_St9_IdentityIS0_ESt4lessIS0_ESaIS0_EE8_S_valueEPKSt18_Rb_tree_node_base
FNDA:2923,_ZNSt8_Rb_treeImSt4pairIKmiESt10_Select1stIS2_ESt4lessImESaIS2_EE8_S_valueEPKSt18_Rb_tree_node_base
FNDA:0,_ZNSt8_Rb_treeIiiSt9_IdentityIiESt4lessIiESaIiEE8_S_valueEPKSt18_Rb_tree_node_base
FNDA:1771,_ZNSt8_Rb_treeIPvSt4pairIKS0_16_data_access_logESt10_Select1stIS4_ESt4lessIS0_ESaIS4_EE8_S_valueEPKSt18_Rb_tree_node_base
FNDA:1272,_ZNSt8_Rb_treeIPvS0_St9_IdentityIS0_ESt4lessIS0_ESaIS0_EE6_S_keyEPKSt18_Rb_tree_node_base
FNDA:2923,_ZNSt8_Rb_treeImSt4pairIKmiESt10_Select1stIS2_ESt4lessImESaIS2_EE6_S_keyEPKSt18_Rb_tree_node_base
FNDA:0,_ZNSt8_Rb_treeIiiSt9_IdentityIiESt4lessIiESaIiEE6_S_keyEPKSt18_Rb_tree_node_base
FNDA:1771,_ZNSt8_Rb_treeIPvSt4pairIKS0_16_data_access_logESt10_Select1stIS4_ESt4lessIS0_ESaIS4_EE6_S_keyEPKSt18_Rb_tree_node_base
FNDA:89,_ZNSt8_Rb_treeIPvS0_St9_IdentityIS0_ESt4lessIS0_ESaIS0_EE10_S_minimumEPSt18_Rb_tree_node_base
FNDA:0,_ZNSt8_Rb_treeIiiSt9_IdentityIiESt4lessIiESaIiEE10_S_minimumEPSt18_Rb_tree_node_base
FNDA:89,_ZNSt8_Rb_treeIPvS0_St9_IdentityIS0_ESt4lessIS0_ESaIS0_EE10_S_maximumEPSt18_Rb_tree_node_base
FNDA:0,_ZNSt8_Rb_treeIiiSt9_IdentityIiESt4lessIiESaIiEE10_S_maximumEPSt18_Rb_tree_node_base
FNDA:432,_ZNSt8_Rb_treeIPvS0_St9_IdentityIS0_ESt4lessIS0_ESaIS0_EEC2Ev
FNDA:2,_ZNSt8_Rb_treeImSt4pairIKmiESt10_Select1stIS2_ESt4lessImESaIS2_EEC2Ev
FNDA:346,_ZNSt8_Rb_treeIiiSt9_IdentityIiESt4lessIiESaIiEEC2Ev
FNDA:2,_ZNSt8_Rb_treeIPvSt4pairIKS0_16_data_access_logESt10_Select1stIS4_ESt4lessIS0_ESaIS4_EEC2Ev
FNDA:1340,_ZNSt8_Rb_treeIPvS0_St9_IdentityIS0_ESt4lessIS0_ESaIS0_EEC2ERKS6_
FNDA:1038,_ZNSt8_Rb_treeIiiSt9_IdentityIiESt4lessIiESaIiEEC2ERKS5_
FNDA:1384,_ZNSt8_Rb_treeIiiSt9_IdentityIiESt4lessIiESaIiEED2Ev
FNDA:1772,_ZNSt8_Rb_treeIPvS0_St9_IdentityIS0_ESt4lessIS0_ESaIS0_EED2Ev
FNDA:2,_ZNSt8_Rb_treeImSt4pairIKmiESt10_Select1stIS2_ESt4lessImESaIS2_EED2Ev
FNDA:2,_ZNSt8_Rb_treeIPvSt4pairIKS0_16_data_access_logESt10_Select1stIS4_ESt4lessIS0_ESaIS4_EED2Ev
FNDA:0,_ZNKSt8_Rb_treeImSt4pairIKmiESt10_Select1stIS2_ESt4lessImESaIS2_EE8key_compEv
FNDA:206,_ZNSt8_Rb_treeImSt4pairIKmiESt10_Select1stIS2_ESt4lessImESaIS2_EE5beginEv
FNDA:116,_ZNSt8_Rb_treeIPvS0_St9_IdentityIS0_ESt4lessIS0_ESaIS0_EE5beginEv
FNDA:0,_ZNSt8_Rb_treeIiiSt9_IdentityIiESt4lessIiESaIiEE5beginEv
FNDA:91,_ZNSt8_Rb_treeIPvSt4pairIKS0_16_data_access_logESt10_Select1stIS4_ESt4lessIS0_ESaIS4_EE5beginEv
FNDA:0,_ZNKSt8_Rb_treeIPvS0_St9_IdentityIS0_ESt4lessIS0_ESaIS0_EE5beginEv
FNDA:406,_ZNKSt8_Rb_treeIiiSt9_IdentityIiESt4lessIiESaIiEE5beginEv
FNDA:5078,_ZNSt8_Rb_treeImSt4pairIKmiESt10_Select1stIS2_ESt4lessImESaIS2_EE3endEv
FNDA:0,_ZNSt8_Rb_treeIPvS0_St9_IdentityIS0_ESt4lessIS0_ESaIS0_EE3endEv
FNDA:0,_ZNSt8_Rb_treeIiiSt9_IdentityIiESt4lessIiESaIiEE3endEv
FNDA:2256,_ZNSt8_Rb_treeIPvSt4pairIKS0_16_data_access_logESt10_Select1stIS4_ESt4lessIS0_ESaIS4_EE3endEv
FNDA:0,_ZNKSt8_Rb_treeIPvS0_St9_IdentityIS0_ESt4lessIS0_ESaIS0_EE3endEv
FNDA:0,_ZNKSt8_Rb_treeIiiSt9_IdentityIiESt4lessIiESaIiEE3endEv
FNDA:1940,_ZNKSt8_Rb_treeImSt4pairIKmiESt10_Select1stIS2_ESt4lessImESaIS2_EE5emptyEv
FNDA:406,_ZNKSt8_Rb_treeIiiSt9_IdentityIiESt4lessIiESaIiEE5emptyEv
FNDA:4,_ZNKSt8_Rb_treeIPvSt4pairIKS0_16_data_access_logESt10_Select1stIS4_ESt4lessIS0_ESaIS4_EE5emptyEv
FNDA:0,_ZNKSt8_Rb_treeIiiSt9_IdentityIiESt4lessIiESaIiEE4sizeEv
FNDA:0,_ZNKSt8_Rb_treeImSt4pairIKmiESt10_Select1stIS2_ESt4lessImESaIS2_EE4sizeEv
FNDA:0,_ZNSt8_Rb_treeIPvS0_St9_IdentityIS0_ESt4lessIS0_ESaIS0_EE5clearEv
FNDA:0,_ZNSt8_Rb_treeIiiSt9_IdentityIiESt4lessIiESaIiEE5clearEv
FNDA:2,_ZNSt8_Rb_treeImSt4pairIKmiESt10_Select1stIS2_ESt4lessImESaIS2_EE5clearEv
FNDA:2,_ZNSt8_Rb_treeIPvSt4pairIKS0_16_data_access_logESt10_Select1stIS4_ESt4lessIS0_ESaIS4_EE5clearEv
FNDA:0,_ZNSt8_Rb_treeImSt4pairIKmiESt10_Select1stIS2_ESt4lessImESaIS2_EE11lower_boundERS1_
FNDA:0,_ZNSt8_Rb_treeIPvS0_St9_IdentityIS0_ESt4lessIS0_ESaIS0_EEaSERKS6_
FNDA:752,_ZNSt8_Rb_treeIPvS0_St9_IdentityIS0_ESt4lessIS0_ESaIS0_EE10_M_insert_EPKSt18_Rb_tree_node_baseS9_RKS0_
FNDA:0,_ZNSt8_Rb_treeIiiSt9_IdentityIiESt4lessIiESaIiEE10_M_insert_EPKSt18_Rb_tree_node_baseS8_RKi
FNDA:216,_ZNSt8_Rb_treeImSt4pairIKmiESt10_Select1stIS2_ESt4lessImESaIS2_EE10_M_insert_EPKSt18_Rb_tree_node_baseSB_RKS2_
FNDA:346,_ZNSt8_Rb_treeIPvSt4pairIKS0_16_data_access_logESt10_Select1stIS4_ESt4lessIS0_ESaIS4_EE10_M_insert_EPKSt18_Rb_tree_node_baseSD_RKS4_
FNDA:424,_ZNSt8_Rb_treeIPvS0_St9_IdentityIS0_ESt4lessIS0_ESaIS0_EE7_M_copyEPKSt13_Rb_tree_nodeIS0_EPS8_
FNDA:0,_ZNSt8_Rb_treeIiiSt9_IdentityIiESt4lessIiESaIiEE7_M_copyEPKSt13_Rb_tree_nodeIiEPS7_
FNDA:1384,_ZNSt8_Rb_treeIiiSt9_IdentityIiESt4lessIiESaIiEE8_M_eraseEPSt13_Rb_tree_nodeIiE
FNDA:3232,_ZNSt8_Rb_treeIPvS0_St9_IdentityIS0_ESt4lessIS0_ESaIS0_EE8_M_eraseEPSt13_Rb_tree_nodeIS0_E
FNDA:220,_ZNSt8_Rb_treeImSt4pairIKmiESt10_Select1stIS2_ESt4lessImESaIS2_EE8_M_eraseEPSt13_Rb_tree_nodeIS2_E
FNDA:350,_ZNSt8_Rb_treeIPvSt4pairIKS0_16_data_access_logESt10_Select1stIS4_ESt4lessIS0_ESaIS4_EE8_M_eraseEPSt13_Rb_tree_nodeIS4_E
FNDA:0,_ZNSt8_Rb_treeIPvS0_St9_IdentityIS0_ESt4lessIS0_ESaIS0_EE14_M_lower_boundEPSt13_Rb_tree_nodeIS0_ES9_RKS0_
FNDA:0,_ZNSt8_Rb_treeIiiSt9_IdentityIiESt4lessIiESaIiEE14_M_lower_boundEPSt13_Rb_tree_nodeIiES8_RKi
FNDA:2904,_ZNSt8_Rb_treeImSt4pairIKmiESt10_Select1stIS2_ESt4lessImESaIS2_EE14_M_lower_boundEPSt13_Rb_tree_nodeIS2_ESB_RS1_
FNDA:1158,_ZNSt8_Rb_treeIPvSt4pairIKS0_16_data_access_logESt10_Select1stIS4_ESt4lessIS0_ESaIS4_EE14_M_lower_boundEPSt13_Rb_tree_nodeIS4_ESD_RS2_
FNDA:0,_ZNSt8_Rb_treeIiiSt9_IdentityIiESt4lessIiESaIiEE14_M_upper_boundEPSt13_Rb_tree_nodeIiES8_RKi
FNDA:0,_ZNSt8_Rb_treeIiiSt9_IdentityIiESt4lessIiESaIiEE11equal_rangeERKi
FNDA:752,_ZNSt8_Rb_treeIPvS0_St9_IdentityIS0_ESt4lessIS0_ESaIS0_EE16_M_insert_uniqueERKS0_
FNDA:0,_ZNSt8_Rb_treeIiiSt9_IdentityIiESt4lessIiESaIiEE16_M_insert_uniqueERKi
FNDA:216,_ZNSt8_Rb_treeImSt4pairIKmiESt10_Select1stIS2_ESt4lessImESaIS2_EE16_M_insert_uniqueERKS2_
FNDA:346,_ZNSt8_Rb_treeIPvSt4pairIKS0_16_data_access_logESt10_Select1stIS4_ESt4lessIS0_ESaIS4_EE16_M_insert_uniqueERKS4_
FNDA:0,_ZNSt8_Rb_treeIiiSt9_IdentityIiESt4lessIiESaIiEE17_M_insert_unique_ESt23_Rb_tree_const_iteratorIiERKi
FNDA:0,_ZNSt8_Rb_treeImSt4pairIKmiESt10_Select1stIS2_ESt4lessImESaIS2_EE17_M_insert_unique_ESt23_Rb_tree_const_iteratorIS2_ERKS2_
FNDA:0,_ZNSt8_Rb_treeIiiSt9_IdentityIiESt4lessIiESaIiEE16_M_insert_uniqueIN9__gnu_cxx17__normal_iteratorIPiSt6vectorIiS4_EEEEEvT_SD_
FNDA:0,_ZNSt8_Rb_treeIiiSt9_IdentityIiESt4lessIiESaIiEE5eraseESt17_Rb_tree_iteratorIiE
FNDA:0,_ZNSt8_Rb_treeIiiSt9_IdentityIiESt4lessIiESaIiEE5eraseERKi
FNDA:0,_ZNSt8_Rb_treeIiiSt9_IdentityIiESt4lessIiESaIiEE5eraseESt17_Rb_tree_iteratorIiES7_
FNDA:0,_ZNSt8_Rb_treeIPvS0_St9_IdentityIS0_ESt4lessIS0_ESaIS0_EE4findERKS0_
FNDA:0,_ZNSt8_Rb_treeIiiSt9_IdentityIiESt4lessIiESaIiEE4findERKi
FNDA:2904,_ZNSt8_Rb_treeImSt4pairIKmiESt10_Select1stIS2_ESt4lessImESaIS2_EE4findERS1_
FNDA:1158,_ZNSt8_Rb_treeIPvSt4pairIKS0_16_data_access_logESt10_Select1stIS4_ESt4lessIS0_ESaIS4_EE4findERS2_
FNF:202
FNH:128
BRDA:100,2,0,104
BRDA:100,2,1,89
BRDA:114,2,0,223
BRDA:114,2,1,89
BRDA:371,9999,3,-
BRDA:371,9999,4,-
BRDA:371,0,8,216
BRDA:371,0,9,0
BRDA:371,1,13,346
BRDA:371,1,14,0
BRDA:371,2,16,346
BRDA:371,2,17,0
BRDA:374,9999,0,-
BRDA:374,9999,1,-
BRDA:374,9999,3,-
BRDA:374,9999,4,-
BRDA:374,9999,6,-
BRDA:374,9999,7,-
BRDA:383,3,10,346
BRDA:383,3,11,0
BRDA:600,9999,1,89
BRDA:600,9999,2,1251
BRDA:600,9999,4,0
BRDA:600,9999,5,1038
BRDA:602,0,3,89
BRDA:602,0,4,0
BRDA:602,1,9,-
BRDA:602,1,10,-
BRDA:614,0,1,1384
BRDA:614,0,2,0
BRDA:614,3,8,1772
BRDA:614,3,9,0
BRDA:614,6,15,2
BRDA:614,6,16,0
BRDA:614,9,22,2
BRDA:614,9,23,0
BRDA:873,0,0,-
BRDA:873,0,1,-
BRDA:878,9999,1,-
BRDA:878,9999,2,-
BRDA:897,0,0,752
BRDA:897,0,1,0
BRDA:897,1,3,636
BRDA:897,1,4,116
BRDA:897,2,8,0
BRDA:897,2,9,636
BRDA:897,5,10,-
BRDA:897,5,11,-
BRDA:897,6,13,-
BRDA:897,6,14,-
BRDA:897,7,18,-
BRDA:897,7,19,-
BRDA:897,10,20,216
BRDA:897,10,21,0
BRDA:897,11,23,212
BRDA:897,11,24,4
BRDA:897,12,28,200
BRDA:897,12,29,12
BRDA:897,15,30,346
BRDA:897,15,31,0
BRDA:897,16,33,342
BRDA:897,16,34,4
BRDA:897,17,38,87
BRDA:897,17,39,255
BRDA:955,9999,0,246
BRDA:955,9999,1,178
BRDA:955,9999,2,-
BRDA:955,9999,3,-
BRDA:956,0,1,246
BRDA:956,0,2,0
BRDA:956,2,5,-
BRDA:956,2,6,-
BRDA:960,0,0,284
BRDA:960,0,1,424
BRDA:960,1,2,-
BRDA:960,1,3,-
BRDA:962,0,0,284
BRDA:962,0,1,0
BRDA:962,1,3,-
BRDA:962,1,4,-
BRDA:965,0,0,89
BRDA:965,0,1,195
BRDA:965,1,2,-
BRDA:965,1,3,-
BRDA:966,0,1,89
BRDA:966,0,2,0
BRDA:966,2,5,-
BRDA:966,2,6,-
BRDA:973,9999,0,-
BRDA:973,9999,1,-
BRDA:973,9999,3,-
BRDA:973,9999,4,-
BRDA:986,1,0,0
BRDA:986,1,1,1384
BRDA:986,3,2,1460
BRDA:986,3,3,3232
BRDA:986,5,4,216
BRDA:986,5,5,220
BRDA:986,7,6,346
BRDA:986,7,7,350
BRDA:1003,1,0,-
BRDA:1003,1,1,-
BRDA:1003,3,2,-
BRDA:1003,3,3,-
BRDA:1003,5,4,14936
BRDA:1003,5,5,2904
BRDA:1003,7,6,7165
BRDA:1003,7,7,1158
BRDA:1004,0,2,-
BRDA:1004,0,3,-
BRDA:1004,1,6,-
BRDA:1004,1,7,-
BRDA:1004,2,10,7436
BRDA:1004,2,11,7500
BRDA:1004,3,14,2816
BRDA:1004,3,15,4349
BRDA:1035,1,0,-
BRDA:1035,1,1,-
BRDA:1036,0,2,-
BRDA:1036,0,3,-
BRDA:1070,0,0,-
BRDA:1070,0,1,-
BRDA:1072,0,2,-
BRDA:1072,0,3,-
BRDA:1074,0,2,-
BRDA:1074,0,3,-
BRDA:1181,0,0,2382
BRDA:1181,0,1,752
BRDA:1181,1,2,-
BRDA:1181,1,3,-
BRDA:1181,2,4,1595
BRDA:1181,2,5,216
BRDA:1181,3,6,2041
BRDA:1181,3,7,346
BRDA:1185,9999,0,0
BRDA:1185,9999,1,2382
BRDA:1185,2,4,-
BRDA:1185,2,5,-
BRDA:1185,5,8,1553
BRDA:1185,5,9,42
BRDA:1185,8,12,576
BRDA:1185,8,13,1465
BRDA:1188,9999,0,116
BRDA:1188,9999,1,636
BRDA:1188,9999,2,-
BRDA:1188,9999,3,-
BRDA:1188,9999,4,204
BRDA:1188,9999,5,12
BRDA:1188,9999,6,91
BRDA:1188,9999,7,255
BRDA:1190,0,2,116
BRDA:1190,0,3,0
BRDA:1190,1,6,-
BRDA:1190,1,7,-
BRDA:1190,2,10,193
BRDA:1190,2,11,11
BRDA:1190,3,14,12
BRDA:1190,3,15,79
BRDA:1195,0,3,636
BRDA:1195,0,4,0
BRDA:1195,1,8,-
BRDA:1195,1,9,-
BRDA:1195,2,13,23
BRDA:1195,2,14,0
BRDA:1195,3,18,334
BRDA:1195,3,19,0
BRDA:1224,0,1,-
BRDA:1224,0,2,-
BRDA:1224,1,4,-
BRDA:1224,1,5,-
BRDA:1226,0,1,-
BRDA:1226,0,2,-
BRDA:1226,1,7,-
BRDA:1226,1,8,-
BRDA:1226,4,9,-
BRDA:1226,4,10,-
BRDA:1226,5,12,-
BRDA:1226,5,13,-
BRDA:1226,6,18,-
BRDA:1226,6,19,-
BRDA:1226,9,20,-
BRDA:1226,9,21,-
BRDA:1233,0,3,-
BRDA:1233,0,4,-
BRDA:1233,1,8,-
BRDA:1233,1,9,-
BRDA:1238,0,1,-
BRDA:1238,0,2,-
BRDA:1238,1,4,-
BRDA:1238,1,5,-
BRDA:1240,0,4,-
BRDA:1240,0,5,-
BRDA:1240,1,10,-
BRDA:1240,1,11,-
BRDA:1243,0,1,-
BRDA:1243,0,2,-
BRDA:1243,1,4,-
BRDA:1243,1,5,-
BRDA:1252,0,3,-
BRDA:1252,0,4,-
BRDA:1252,1,8,-
BRDA:1252,1,9,-
BRDA:1257,0,1,-
BRDA:1257,0,2,-
BRDA:1257,1,4,-
BRDA:1257,1,5,-
BRDA:1259,0,4,-
BRDA:1259,0,5,-
BRDA:1259,1,10,-
BRDA:1259,1,11,-
BRDA:1262,0,1,-
BRDA:1262,0,2,-
BRDA:1262,1,4,-
BRDA:1262,1,5,-
BRDA:1337,1,2,-
BRDA:1337,1,3,-
BRDA:1481,0,2,-
BRDA:1481,0,3,-
BRDA:1481,1,6,-
BRDA:1481,1,7,-
BRDA:1481,4,8,-
BRDA:1481,4,9,-
BRDA:1484,1,1,-
BRDA:1484,1,2,-
BRDA:1522,9999,2,-
BRDA:1522,9999,3,-
BRDA:1522,0,6,-
BRDA:1522,0,7,-
BRDA:1522,3,11,-
BRDA:1522,3,12,-
BRDA:1522,4,15,-
BRDA:1522,4,16,-
BRDA:1522,7,20,2688
BRDA:1522,7,21,216
BRDA:1522,8,24,0
BRDA:1522,8,25,2688
BRDA:1522,11,29,1095
BRDA:1522,11,30,63
BRDA:1522,12,33,283
BRDA:1522,12,34,812
BRF:240
BRH:86
DA:98,89
DA:100,193
DA:101,89
DA:112,89
DA:114,312
DA:115,89
DA:166,2
DA:167,2
DA:170,14437
DA:171,14437
DA:174,0
DA:175,0
DA:178,1394
DA:179,1394
DA:189,20
DA:191,20
DA:192,20
DA:197,90
DA:199,90
DA:200,90
DA:212,5437
DA:213,5437
DA:216,1746
DA:217,1746
DA:238,0
DA:239,0
DA:242,406
DA:243,406
DA:245,752
DA:246,752
DA:249,0
DA:250,0
DA:257,0
DA:259,0
DA:260,0
DA:264,0
DA:266,0
DA:267,0
DA:272,0
DA:274,0
DA:275,0
DA:287,0
DA:288,0
DA:291,0
DA:292,0
DA:349,6422
DA:350,6422
DA:353,4044
DA:354,4044
DA:358,2022
DA:359,2022
DA:362,2022
DA:363,2022
DA:367,2022
DA:369,2022
DA:371,2022
DA:372,0
DA:374,0
DA:375,0
DA:377,2022
DA:381,2022
DA:383,2022
DA:384,2022
DA:385,2022
DA:414,708
DA:416,708
DA:417,708
DA:418,708
DA:419,708
DA:420,708
DA:427,3160
DA:432,782
DA:434,782
DA:435,782
DA:437,2378
DA:439,2378
DA:440,2378
DA:444,3160
DA:446,3160
DA:447,3160
DA:448,3160
DA:449,3160
DA:450,3160
DA:457,271
DA:458,271
DA:461,2378
DA:462,2378
DA:465,93
DA:466,93
DA:473,93
DA:474,93
DA:481,8540
DA:482,8540
DA:485,89
DA:488,89
DA:492,6787
DA:493,6787
DA:500,28119
DA:501,28119
DA:504,28119
DA:505,28119
DA:508,14403
DA:509,14403
DA:512,708
DA:513,708
DA:516,17760
DA:517,17760
DA:520,335
DA:521,335
DA:524,5966
DA:525,5966
DA:528,5966
DA:529,5966
DA:532,89
DA:533,89
DA:540,89
DA:541,89
DA:591,782
DA:597,2378
DA:598,2378
DA:600,2378
DA:602,89
DA:603,89
DA:604,89
DA:605,89
DA:607,2378
DA:613,3160
DA:614,3160
DA:621,0
DA:625,413
DA:628,413
DA:632,406
DA:635,406
DA:639,7334
DA:640,7334
DA:643,0
DA:646,0
DA:666,2350
DA:667,2350
DA:670,0
DA:671,0
DA:742,4
DA:744,4
DA:745,4
DA:746,4
DA:747,4
DA:748,4
DA:749,4
DA:762,0
DA:763,0
DA:870,0
DA:873,0
DA:876,0
DA:878,0
DA:880,0
DA:881,0
DA:882,0
DA:883,0
DA:886,0
DA:892,1314
DA:897,1314
DA:899,1314
DA:901,1314
DA:904,1314
DA:905,1314
DA:946,424
DA:950,424
DA:951,424
DA:955,424
DA:956,246
DA:957,424
DA:958,424
DA:960,708
DA:962,284
DA:963,284
DA:964,284
DA:965,284
DA:966,89
DA:967,284
DA:968,284
DA:971,0
DA:973,0
DA:974,0
DA:976,424
DA:982,5186
DA:986,7208
DA:988,2022
DA:989,2022
DA:990,2022
DA:991,2022
DA:993,5186
DA:999,4062
DA:1003,26163
DA:1004,22101
DA:1005,10252
DA:1007,11849
DA:1008,4062
DA:1031,0
DA:1035,0
DA:1036,0
DA:1037,0
DA:1039,0
DA:1040,0
DA:1065,0
DA:1068,0
DA:1069,0
DA:1070,0
DA:1072,0
DA:1073,0
DA:1074,0
DA:1075,0
DA:1078,0
DA:1079,0
DA:1080,0
DA:1083,0
DA:1087,0
DA:1175,1314
DA:1178,1314
DA:1179,1314
DA:1180,1314
DA:1181,7332
DA:1183,6018
DA:1184,6018
DA:1185,6018
DA:1187,1314
DA:1188,1314
DA:1190,411
DA:1191,321
DA:1193,90
DA:1195,993
DA:1196,993
DA:1197,1314
DA:1220,0
DA:1224,0
DA:1226,0
DA:1229,0
DA:1231,0
DA:1233,0
DA:1237,0
DA:1238,0
DA:1239,0
DA:1240,0
DA:1243,0
DA:1244,0
DA:1247,0
DA:1250,0
DA:1252,0
DA:1256,0
DA:1257,0
DA:1258,0
DA:1259,0
DA:1262,0
DA:1263,0
DA:1265,0
DA:1268,0
DA:1273,0
DA:1334,0
DA:1337,0
DA:1338,0
DA:1339,0
DA:1394,0
DA:1400,0
DA:1401,0
DA:1402,0
DA:1403,0
DA:1423,0
DA:1426,0
DA:1427,0
DA:1428,0
DA:1429,0
DA:1478,0
DA:1481,0
DA:1482,0
DA:1484,0
DA:1485,0
DA:1486,0
DA:1516,4062
DA:1519,4062
DA:1522,4062
LF:279
LH:175
end_of_record
SF:/usr/include/c++/4.5/bits/stl_uninitialized.h
FN:67,_ZNSt20__uninitialized_copyILb0EE18uninitialized_copyIP17_loop_spec_threadS3_EET0_T_S5_S4_
FN:90,_ZNSt20__uninitialized_copyILb1EE18uninitialized_copyISt23_Rb_tree_const_iteratorIiEPiEET0_T_S6_S5_
FN:90,_ZNSt20__uninitialized_copyILb1EE18uninitialized_copyIPPvS3_EET0_T_S5_S4_
FN:90,_ZNSt20__uninitialized_copyILb1EE18uninitialized_copyIPPFPvS2_ES5_EET0_T_S7_S6_
FN:90,_ZNSt20__uninitialized_copyILb1EE18uninitialized_copyIN9__gnu_cxx17__normal_iteratorIPKPFPvS4_ESt6vectorIS6_SaIS6_EEEEPS6_EET0_T_SF_SE_
FN:90,_ZNSt20__uninitialized_copyILb1EE18uninitialized_copyIN9__gnu_cxx17__normal_iteratorIPKPvSt6vectorIS4_SaIS4_EEEEPS4_EET0_T_SD_SC_
FN:90,_ZNSt20__uninitialized_copyILb1EE18uninitialized_copyIN9__gnu_cxx17__normal_iteratorIPKiSt6vectorIiSaIiEEEEPiEET0_T_SC_SB_
FN:90,_ZNSt20__uninitialized_copyILb1EE18uninitialized_copyIN9__gnu_cxx17__normal_iteratorIPiSt6vectorIiSaIiEEEES4_EET0_T_SA_S9_
FN:90,_ZNSt20__uninitialized_copyILb1EE18uninitialized_copyIPiS2_EET0_T_S4_S3_
FN:106,_ZSt18uninitialized_copyIPPFPvS0_ES3_ET0_T_S5_S4_
FN:106,_ZSt18uninitialized_copyIN9__gnu_cxx17__normal_iteratorIPKPvSt6vectorIS2_SaIS2_EEEEPS2_ET0_T_SB_SA_
FN:106,_ZSt18uninitialized_copyIN9__gnu_cxx17__normal_iteratorIPKiSt6vectorIiSaIiEEEEPiET0_T_SA_S9_
FN:106,_ZSt18uninitialized_copyIPPvS1_ET0_T_S3_S2_
FN:106,_ZSt18uninitialized_copyIPiS0_ET0_T_S2_S1_
FN:106,_ZSt18uninitialized_copyIN9__gnu_cxx17__normal_iteratorIPiSt6vectorIiSaIiEEEES2_ET0_T_S8_S7_
FN:106,_ZSt18uninitialized_copyISt23_Rb_tree_const_iteratorIiEPiET0_T_S4_S3_
FN:106,_ZSt18uninitialized_copyIN9__gnu_cxx17__normal_iteratorIPKPFPvS2_ESt6vectorIS4_SaIS4_EEEEPS4_ET0_T_SD_SC_
FN:106,_ZSt18uninitialized_copyIP17_loop_spec_threadS1_ET0_T_S3_S2_
FN:241,_ZNSt22__uninitialized_fill_nILb0EE20uninitialized_fill_nIP17_loop_spec_threadjS2_EEvT_T0_RKT1_
FN:279,_ZSt20uninitialized_fill_nIP17_loop_spec_threadjS0_EvT_T0_RKT1_
FN:316,_ZSt22__uninitialized_copy_aIN9__gnu_cxx17__normal_iteratorIPKPvSt6vectorIS2_SaIS2_EEEEPS2_S2_ET0_T_SB_SA_RSaIT1_E
FN:316,_ZSt22__uninitialized_copy_aIP17_loop_spec_threadS1_S0_ET0_T_S3_S2_RSaIT1_E
FN:316,_ZSt22__uninitialized_copy_aIPPFPvS0_ES3_S2_ET0_T_S5_S4_RSaIT1_E
FN:316,_ZSt22__uninitialized_copy_aIN9__gnu_cxx17__normal_iteratorIPKPFPvS2_ESt6vectorIS4_SaIS4_EEEEPS4_S4_ET0_T_SD_SC_RSaIT1_E
FN:316,_ZSt22__uninitialized_copy_aIPiS0_iET0_T_S2_S1_RSaIT1_E
FN:316,_ZSt22__uninitialized_copy_aIPPvS1_S0_ET0_T_S3_S2_RSaIT1_E
FN:316,_ZSt22__uninitialized_copy_aIN9__gnu_cxx17__normal_iteratorIPKiSt6vectorIiSaIiEEEEPiiET0_T_SA_S9_RSaIT1_E
FN:316,_ZSt22__uninitialized_copy_aISt23_Rb_tree_const_iteratorIiEPiiET0_T_S4_S3_RSaIT1_E
FN:316,_ZSt22__uninitialized_copy_aIN9__gnu_cxx17__normal_iteratorIPiSt6vectorIiSaIiEEEES2_iET0_T_S8_S7_RSaIT1_E
FN:323,_ZSt22__uninitialized_move_aIP17_loop_spec_threadS1_SaIS0_EET0_T_S4_S3_RT1_
FN:323,_ZSt22__uninitialized_move_aIPiS0_SaIiEET0_T_S3_S2_RT1_
FN:323,_ZSt22__uninitialized_move_aIPPFPvS0_ES3_SaIS2_EET0_T_S6_S5_RT1_
FN:323,_ZSt22__uninitialized_move_aIPPvS1_SaIS0_EET0_T_S4_S3_RT1_
FN:377,_ZSt24__uninitialized_fill_n_aIP17_loop_spec_threadjS0_S0_EvT_T0_RKT1_RSaIT2_E
FNDA:232,_ZNSt20__uninitialized_copyILb0EE18uninitialized_copyIP17_loop_spec_threadS3_EET0_T_S5_S4_
FNDA:1828,_ZNSt20__uninitialized_copyILb1EE18uninitialized_copyIPiS2_EET0_T_S4_S3_
FNDA:1042,_ZNSt20__uninitialized_copyILb1EE18uninitialized_copyIN9__gnu_cxx17__normal_iteratorIPKiSt6vectorIiSaIiEEEEPiEET0_T_SC_SB_
FNDA:0,_ZNSt20__uninitialized_copyILb1EE18uninitialized_copyISt23_Rb_tree_const_iteratorIiEPiEET0_T_S6_S5_
FNDA:0,_ZNSt20__uninitialized_copyILb1EE18uninitialized_copyIN9__gnu_cxx17__normal_iteratorIPiSt6vectorIiSaIiEEEES4_EET0_T_SA_S9_
FNDA:1830,_ZNSt20__uninitialized_copyILb1EE18uninitialized_copyIPPvS3_EET0_T_S5_S4_
FNDA:2,_ZNSt20__uninitialized_copyILb1EE18uninitialized_copyIPPFPvS2_ES5_EET0_T_S7_S6_
FNDA:4,_ZNSt20__uninitialized_copyILb1EE18uninitialized_copyIN9__gnu_cxx17__normal_iteratorIPKPFPvS4_ESt6vectorIS6_SaIS6_EEEEPS6_EET0_T_SF_SE_
FNDA:1042,_ZNSt20__uninitialized_copyILb1EE18uninitialized_copyIN9__gnu_cxx17__normal_iteratorIPKPvSt6vectorIS4_SaIS4_EEEEPS4_EET0_T_SD_SC_
FNDA:1828,_ZSt18uninitialized_copyIPiS0_ET0_T_S2_S1_
FNDA:1042,_ZSt18uninitialized_copyIN9__gnu_cxx17__normal_iteratorIPKiSt6vectorIiSaIiEEEEPiET0_T_SA_S9_
FNDA:232,_ZSt18uninitialized_copyIP17_loop_spec_threadS1_ET0_T_S3_S2_
FNDA:0,_ZSt18uninitialized_copyISt23_Rb_tree_const_iteratorIiEPiET0_T_S4_S3_
FNDA:0,_ZSt18uninitialized_copyIN9__gnu_cxx17__normal_iteratorIPiSt6vectorIiSaIiEEEES2_ET0_T_S8_S7_
FNDA:1830,_ZSt18uninitialized_copyIPPvS1_ET0_T_S3_S2_
FNDA:2,_ZSt18uninitialized_copyIPPFPvS0_ES3_ET0_T_S5_S4_
FNDA:4,_ZSt18uninitialized_copyIN9__gnu_cxx17__normal_iteratorIPKPFPvS2_ESt6vectorIS4_SaIS4_EEEEPS4_ET0_T_SD_SC_
FNDA:1042,_ZSt18uninitialized_copyIN9__gnu_cxx17__normal_iteratorIPKPvSt6vectorIS2_SaIS2_EEEEPS2_ET0_T_SB_SA_
FNDA:216,_ZNSt22__uninitialized_fill_nILb0EE20uninitialized_fill_nIP17_loop_spec_threadjS2_EEvT_T0_RKT1_
FNDA:216,_ZSt20uninitialized_fill_nIP17_loop_spec_threadjS0_EvT_T0_RKT1_
FNDA:1828,_ZSt22__uninitialized_copy_aIPiS0_iET0_T_S2_S1_RSaIT1_E
FNDA:1042,_ZSt22__uninitialized_copy_aIN9__gnu_cxx17__normal_iteratorIPKiSt6vectorIiSaIiEEEEPiiET0_T_SA_S9_RSaIT1_E
FNDA:232,_ZSt22__uninitialized_copy_aIP17_loop_spec_threadS1_S0_ET0_T_S3_S2_RSaIT1_E
FNDA:0,_ZSt22__uninitialized_copy_aISt23_Rb_tree_const_iteratorIiEPiiET0_T_S4_S3_RSaIT1_E
FNDA:0,_ZSt22__uninitialized_copy_aIN9__gnu_cxx17__normal_iteratorIPiSt6vectorIiSaIiEEEES2_iET0_T_S8_S7_RSaIT1_E
FNDA:1830,_ZSt22__uninitialized_copy_aIPPvS1_S0_ET0_T_S3_S2_RSaIT1_E
FNDA:2,_ZSt22__uninitialized_copy_aIPPFPvS0_ES3_S2_ET0_T_S5_S4_RSaIT1_E
FNDA:4,_ZSt22__uninitialized_copy_aIN9__gnu_cxx17__normal_iteratorIPKPFPvS2_ESt6vectorIS4_SaIS4_EEEEPS4_S4_ET0_T_SD_SC_RSaIT1_E
FNDA:1042,_ZSt22__uninitialized_copy_aIN9__gnu_cxx17__normal_iteratorIPKPvSt6vectorIS2_SaIS2_EEEEPS2_S2_ET0_T_SB_SA_RSaIT1_E
FNDA:1828,_ZSt22__uninitialized_move_aIPiS0_SaIiEET0_T_S3_S2_RT1_
FNDA:232,_ZSt22__uninitialized_move_aIP17_loop_spec_threadS1_SaIS0_EET0_T_S4_S3_RT1_
FNDA:1830,_ZSt22__uninitialized_move_aIPPvS1_SaIS0_EET0_T_S4_S3_RT1_
FNDA:2,_ZSt22__uninitialized_move_aIPPFPvS0_ES3_SaIS2_EET0_T_S6_S5_RT1_
FNDA:216,_ZSt24__uninitialized_fill_n_aIP17_loop_spec_threadjS0_S0_EvT_T0_RKT1_RSaIT2_E
FNF:34
FNH:28
BRDA:73,2,0,254
BRDA:73,2,1,232
BRDA:74,0,0,254
BRDA:74,0,1,0
BRDA:79,9999,0,-
BRDA:79,9999,1,-
BRDA:247,2,0,216
BRDA:247,2,1,216
BRDA:248,0,0,216
BRDA:248,0,1,0
BRDA:252,9999,0,-
BRDA:252,9999,1,-
BRF:12
BRH:6
DA:67,232
DA:70,232
DA:73,486
DA:74,254
DA:75,232
DA:77,0
DA:79,0
DA:80,0
DA:90,5748
DA:92,5748
DA:106,5980
DA:116,5980
DA:241,216
DA:244,216
DA:247,432
DA:248,216
DA:250,0
DA:252,0
DA:253,0
DA:255,216
DA:279,216
DA:284,216
DA:286,216
DA:316,5980
DA:318,5980
DA:323,3892
DA:328,3892
DA:377,216
DA:379,216
LF:29
LH:23
end_of_record
SF:/usr/include/c++/4.5/bits/stl_vector.h
FN:75,_ZNSt12_Vector_baseIPvSaIS0_EE12_Vector_implD2Ev
FN:75,_ZNSt12_Vector_baseIiSaIiEE12_Vector_implD2Ev
FN:75,_ZNSt12_Vector_baseIPFPvS0_ESaIS2_EE12_Vector_implD2Ev
FN:75,_ZNSt12_Vector_baseI17_loop_spec_threadSaIS0_EE12_Vector_implD2Ev
FN:80,_ZNSt12_Vector_baseIPvSaIS0_EE12_Vector_implC2Ev
FN:80,_ZNSt12_Vector_baseIPFPvS0_ESaIS2_EE12_Vector_implC2Ev
FN:80,_ZNSt12_Vector_baseIiSaIiEE12_Vector_implC2Ev
FN:80,_ZNSt12_Vector_baseI17_loop_spec_threadSaIS0_EE12_Vector_implC2Ev
FN:84,_ZNSt12_Vector_baseIiSaIiEE12_Vector_implC2ERKS0_
FN:84,_ZNSt12_Vector_baseIPFPvS0_ESaIS2_EE12_Vector_implC2ERKS3_
FN:84,_ZNSt12_Vector_baseIPvSaIS0_EE12_Vector_implC2ERKS1_
FN:93,_ZNSt12_Vector_baseIPFPvS0_ESaIS2_EE19_M_get_Tp_allocatorEv
FN:93,_ZNSt12_Vector_baseIPvSaIS0_EE19_M_get_Tp_allocatorEv
FN:93,_ZNSt12_Vector_baseIiSaIiEE19_M_get_Tp_allocatorEv
FN:93,_ZNSt12_Vector_baseI17_loop_spec_threadSaIS0_EE19_M_get_Tp_allocatorEv
FN:97,_ZNKSt12_Vector_baseIPvSaIS0_EE19_M_get_Tp_allocatorEv
FN:97,_ZNKSt12_Vector_baseIPFPvS0_ESaIS2_EE19_M_get_Tp_allocatorEv
FN:97,_ZNKSt12_Vector_baseI17_loop_spec_threadSaIS0_EE19_M_get_Tp_allocatorEv
FN:97,_ZNKSt12_Vector_baseIiSaIiEE19_M_get_Tp_allocatorEv
FN:104,_ZNSt12_Vector_baseIiSaIiEEC2Ev
FN:104,_ZNSt12_Vector_baseI17_loop_spec_threadSaIS0_EEC2Ev
FN:104,_ZNSt12_Vector_baseIPvSaIS0_EEC2Ev
FN:104,_ZNSt12_Vector_baseIPFPvS0_ESaIS2_EEC2Ev
FN:110,_ZNSt12_Vector_baseIiSaIiEEC2EjRKS0_
FN:110,_ZNSt12_Vector_baseIPvSaIS0_EEC2EjRKS1_
FN:110,_ZNSt12_Vector_baseIPFPvS0_ESaIS2_EEC2EjRKS3_
FN:131,_ZNSt12_Vector_baseIPFPvS0_ESaIS2_EED2Ev
FN:131,_ZNSt12_Vector_baseI17_loop_spec_threadSaIS0_EED2Ev
FN:131,_ZNSt12_Vector_baseIPvSaIS0_EED2Ev
FN:131,_ZNSt12_Vector_baseIiSaIiEED2Ev
FN:139,_ZNSt12_Vector_baseIPvSaIS0_EE11_M_allocateEj
FN:139,_ZNSt12_Vector_baseIiSaIiEE11_M_allocateEj
FN:139,_ZNSt12_Vector_baseIPFPvS0_ESaIS2_EE11_M_allocateEj
FN:139,_ZNSt12_Vector_baseI17_loop_spec_threadSaIS0_EE11_M_allocateEj
FN:143,_ZNSt12_Vector_baseIiSaIiEE13_M_deallocateEPij
FN:143,_ZNSt12_Vector_baseIPvSaIS0_EE13_M_deallocateEPS0_j
FN:143,_ZNSt12_Vector_baseIPFPvS0_ESaIS2_EE13_M_deallocateEPS2_j
FN:143,_ZNSt12_Vector_baseI17_loop_spec_threadSaIS0_EE13_M_deallocateEPS0_j
FN:207,_ZNSt6vectorIPvSaIS0_EEC2Ev
FN:207,_ZNSt6vectorIPFPvS0_ESaIS2_EEC2Ev
FN:207,_ZNSt6vectorIiSaIiEEC2Ev
FN:207,_ZNSt6vectorI17_loop_spec_threadSaIS0_EEC2Ev
FN:241,_ZNSt6vectorIiSaIiEEC2ERKS1_
FN:241,_ZNSt6vectorIPFPvS0_ESaIS2_EEC2ERKS4_
FN:241,_ZNSt6vectorIPvSaIS0_EEC2ERKS2_
FN:312,_ZNSt6vectorIiSaIiEED2Ev
FN:312,_ZNSt6vectorI17_loop_spec_threadSaIS0_EED2Ev
FN:312,_ZNSt6vectorIPvSaIS0_EED2Ev
FN:312,_ZNSt6vectorIPFPvS0_ESaIS2_EED2Ev
FN:426,_ZNSt6vectorIiSaIiEE5beginEv
FN:426,_ZNSt6vectorI17_loop_spec_threadSaIS0_EE5beginEv
FN:426,_ZNSt6vectorIPvSaIS0_EE5beginEv
FN:426,_ZNSt6vectorIPFPvS0_ESaIS2_EE5beginEv
FN:435,_ZNKSt6vectorIiSaIiEE5beginEv
FN:435,_ZNKSt6vectorIPFPvS0_ESaIS2_EE5beginEv
FN:435,_ZNKSt6vectorIPvSaIS0_EE5beginEv
FN:435,_ZNKSt6vectorI17_loop_spec_threadSaIS0_EE5beginEv
FN:444,_ZNSt6vectorIiSaIiEE3endEv
FN:444,_ZNSt6vectorI17_loop_spec_threadSaIS0_EE3endEv
FN:444,_ZNSt6vectorIPFPvS0_ESaIS2_EE3endEv
FN:444,_ZNSt6vectorIPvSaIS0_EE3endEv
FN:453,_ZNKSt6vectorIPFPvS0_ESaIS2_EE3endEv
FN:453,_ZNKSt6vectorI17_loop_spec_threadSaIS0_EE3endEv
FN:453,_ZNKSt6vectorIPvSaIS0_EE3endEv
FN:453,_ZNKSt6vectorIiSaIiEE3endEv
FN:533,_ZNKSt6vectorIPFPvS0_ESaIS2_EE4sizeEv
FN:533,_ZNKSt6vectorIiSaIiEE4sizeEv
FN:533,_ZNKSt6vectorI17_loop_spec_threadSaIS0_EE4sizeEv
FN:533,_ZNKSt6vectorIPvSaIS0_EE4sizeEv
FN:538,_ZNKSt6vectorIPFPvS0_ESaIS2_EE8max_sizeEv
FN:538,_ZNKSt6vectorI17_loop_spec_threadSaIS0_EE8max_sizeEv
FN:538,_ZNKSt6vectorIPvSaIS0_EE8max_sizeEv
FN:538,_ZNKSt6vectorIiSaIiEE8max_sizeEv
FN:553,_ZNSt6vectorI17_loop_spec_threadSaIS0_EE6resizeEjS0_
FN:573,_ZNKSt6vectorIiSaIiEE8capacityEv
FN:582,_ZNKSt6vectorIiSaIiEE5emptyEv
FN:582,_ZNKSt6vectorI17_loop_spec_threadSaIS0_EE5emptyEv
FN:618,_ZNSt6vectorIPFPvS0_ESaIS2_EEixEj
FN:618,_ZNSt6vectorIPvSaIS0_EEixEj
FN:618,_ZNSt6vectorI17_loop_spec_threadSaIS0_EEixEj
FN:618,_ZNSt6vectorIiSaIiEEixEj
FN:741,_ZNSt6vectorIiSaIiEE9push_backERKi
FN:741,_ZNSt6vectorIPFPvS0_ESaIS2_EE9push_backERKS2_
FN:741,_ZNSt6vectorIPvSaIS0_EE9push_backERKS0_
FN:858,_ZNSt6vectorI17_loop_spec_threadSaIS0_EE6insertEN9__gnu_cxx17__normal_iteratorIPS0_S2_EEjRKS0_
FN:877,_ZNSt6vectorIiSaIiEE6insertISt23_Rb_tree_const_iteratorIiEEEvN9__gnu_cxx17__normal_iteratorIPiS1_EET_S9_
FN:877,_ZNSt6vectorIiSaIiEE6insertIN9__gnu_cxx17__normal_iteratorIPiS1_EEEEvS6_T_S7_
FN:954,_ZNSt6vectorI17_loop_spec_threadSaIS0_EE5clearEv
FN:954,_ZNSt6vectorIPFPvS0_ESaIS2_EE5clearEv
FN:954,_ZNSt6vectorIPvSaIS0_EE5clearEv
FN:964,_ZNSt6vectorIiSaIiEE20_M_allocate_and_copyIN9__gnu_cxx17__normal_iteratorIPKiS1_EEEEPijT_S9_
FN:1101,_ZNSt6vectorIiSaIiEE18_M_insert_dispatchIN9__gnu_cxx17__normal_iteratorIPiS1_EEEEvS6_T_S7_St12__false_type
FN:1101,_ZNSt6vectorIiSaIiEE18_M_insert_dispatchISt23_Rb_tree_const_iteratorIiEEEvN9__gnu_cxx17__normal_iteratorIPiS1_EET_S9_St12__false_type
FN:1138,_ZNKSt6vectorIPFPvS0_ESaIS2_EE12_M_check_lenEjPKc
FN:1138,_ZNKSt6vectorIiSaIiEE12_M_check_lenEjPKc
FN:1138,_ZNKSt6vectorIPvSaIS0_EE12_M_check_lenEjPKc
FN:1138,_ZNKSt6vectorI17_loop_spec_threadSaIS0_EE12_M_check_lenEjPKc
FN:1152,_ZNSt6vectorI17_loop_spec_threadSaIS0_EE15_M_erase_at_endEPS0_
FN:1152,_ZNSt6vectorIPvSaIS0_EE15_M_erase_at_endEPS0_
FN:1152,_ZNSt6vectorIPFPvS0_ESaIS2_EE15_M_erase_at_endEPS2_
FNDA:2204,_ZNSt12_Vector_baseIiSaIiEE12_Vector_implD2Ev
FNDA:1389,_ZNSt12_Vector_baseIPvSaIS0_EE12_Vector_implD2Ev
FNDA:2,_ZNSt12_Vector_baseI17_loop_spec_threadSaIS0_EE12_Vector_implD2Ev
FNDA:5,_ZNSt12_Vector_baseIPFPvS0_ESaIS2_EE12_Vector_implD2Ev
FNDA:1162,_ZNSt12_Vector_baseIiSaIiEE12_Vector_implC2Ev
FNDA:347,_ZNSt12_Vector_baseIPvSaIS0_EE12_Vector_implC2Ev
FNDA:2,_ZNSt12_Vector_baseI17_loop_spec_threadSaIS0_EE12_Vector_implC2Ev
FNDA:1,_ZNSt12_Vector_baseIPFPvS0_ESaIS2_EE12_Vector_implC2Ev
FNDA:1042,_ZNSt12_Vector_baseIiSaIiEE12_Vector_implC2ERKS0_
FNDA:4,_ZNSt12_Vector_baseIPFPvS0_ESaIS2_EE12_Vector_implC2ERKS3_
FNDA:1042,_ZNSt12_Vector_baseIPvSaIS0_EE12_Vector_implC2ERKS1_
FNDA:5988,_ZNSt12_Vector_baseIiSaIiEE19_M_get_Tp_allocatorEv
FNDA:5179,_ZNSt12_Vector_baseIPvSaIS0_EE19_M_get_Tp_allocatorEv
FNDA:468,_ZNSt12_Vector_baseI17_loop_spec_threadSaIS0_EE19_M_get_Tp_allocatorEv
FNDA:15,_ZNSt12_Vector_baseIPFPvS0_ESaIS2_EE19_M_get_Tp_allocatorEv
FNDA:2870,_ZNKSt12_Vector_baseIiSaIiEE19_M_get_Tp_allocatorEv
FNDA:6,_ZNKSt12_Vector_baseIPFPvS0_ESaIS2_EE19_M_get_Tp_allocatorEv
FNDA:2872,_ZNKSt12_Vector_baseIPvSaIS0_EE19_M_get_Tp_allocatorEv
FNDA:32,_ZNKSt12_Vector_baseI17_loop_spec_threadSaIS0_EE19_M_get_Tp_allocatorEv
FNDA:1162,_ZNSt12_Vector_baseIiSaIiEEC2Ev
FNDA:347,_ZNSt12_Vector_baseIPvSaIS0_EEC2Ev
FNDA:2,_ZNSt12_Vector_baseI17_loop_spec_threadSaIS0_EEC2Ev
FNDA:1,_ZNSt12_Vector_baseIPFPvS0_ESaIS2_EEC2Ev
FNDA:1042,_ZNSt12_Vector_baseIiSaIiEEC2EjRKS0_
FNDA:4,_ZNSt12_Vector_baseIPFPvS0_ESaIS2_EEC2EjRKS3_
FNDA:1042,_ZNSt12_Vector_baseIPvSaIS0_EEC2EjRKS1_
FNDA:2204,_ZNSt12_Vector_baseIiSaIiEED2Ev
FNDA:1389,_ZNSt12_Vector_baseIPvSaIS0_EED2Ev
FNDA:2,_ZNSt12_Vector_baseI17_loop_spec_threadSaIS0_EED2Ev
FNDA:5,_ZNSt12_Vector_baseIPFPvS0_ESaIS2_EED2Ev
FNDA:1956,_ZNSt12_Vector_baseIiSaIiEE11_M_allocateEj
FNDA:5,_ZNSt12_Vector_baseIPFPvS0_ESaIS2_EE11_M_allocateEj
FNDA:1957,_ZNSt12_Vector_baseIPvSaIS0_EE11_M_allocateEj
FNDA:16,_ZNSt12_Vector_baseI17_loop_spec_threadSaIS0_EE11_M_allocateEj
FNDA:3118,_ZNSt12_Vector_baseIiSaIiEE13_M_deallocateEPij
FNDA:2304,_ZNSt12_Vector_baseIPvSaIS0_EE13_M_deallocateEPS0_j
FNDA:18,_ZNSt12_Vector_baseI17_loop_spec_threadSaIS0_EE13_M_deallocateEPS0_j
FNDA:6,_ZNSt12_Vector_baseIPFPvS0_ESaIS2_EE13_M_deallocateEPS2_j
FNDA:1162,_ZNSt6vectorIiSaIiEEC2Ev
FNDA:347,_ZNSt6vectorIPvSaIS0_EEC2Ev
FNDA:2,_ZNSt6vectorI17_loop_spec_threadSaIS0_EEC2Ev
FNDA:1,_ZNSt6vectorIPFPvS0_ESaIS2_EEC2Ev
FNDA:1042,_ZNSt6vectorIiSaIiEEC2ERKS1_
FNDA:4,_ZNSt6vectorIPFPvS0_ESaIS2_EEC2ERKS4_
FNDA:1042,_ZNSt6vectorIPvSaIS0_EEC2ERKS2_
FNDA:2204,_ZNSt6vectorIiSaIiEED2Ev
FNDA:1389,_ZNSt6vectorIPvSaIS0_EED2Ev
FNDA:5,_ZNSt6vectorIPFPvS0_ESaIS2_EED2Ev
FNDA:2,_ZNSt6vectorI17_loop_spec_threadSaIS0_EED2Ev
FNDA:914,_ZNSt6vectorIiSaIiEE5beginEv
FNDA:915,_ZNSt6vectorIPvSaIS0_EE5beginEv
FNDA:1,_ZNSt6vectorIPFPvS0_ESaIS2_EE5beginEv
FNDA:16,_ZNSt6vectorI17_loop_spec_threadSaIS0_EE5beginEv
FNDA:1858,_ZNKSt6vectorIiSaIiEE5beginEv
FNDA:4,_ZNKSt6vectorI17_loop_spec_threadSaIS0_EE5beginEv
FNDA:4,_ZNKSt6vectorIPFPvS0_ESaIS2_EE5beginEv
FNDA:1042,_ZNKSt6vectorIPvSaIS0_EE5beginEv
FNDA:914,_ZNSt6vectorIiSaIiEE3endEv
FNDA:915,_ZNSt6vectorIPvSaIS0_EE3endEv
FNDA:416,_ZNSt6vectorI17_loop_spec_threadSaIS0_EE3endEv
FNDA:1,_ZNSt6vectorIPFPvS0_ESaIS2_EE3endEv
FNDA:1858,_ZNKSt6vectorIiSaIiEE3endEv
FNDA:4,_ZNKSt6vectorI17_loop_spec_threadSaIS0_EE3endEv
FNDA:4,_ZNKSt6vectorIPFPvS0_ESaIS2_EE3endEv
FNDA:1042,_ZNKSt6vectorIPvSaIS0_EE3endEv
FNDA:7527,_ZNKSt6vectorIiSaIiEE4sizeEv
FNDA:32,_ZNKSt6vectorIPFPvS0_ESaIS2_EE4sizeEv
FNDA:4706,_ZNKSt6vectorIPvSaIS0_EE4sizeEv
FNDA:1988,_ZNKSt6vectorI17_loop_spec_threadSaIS0_EE4sizeEv
FNDA:1828,_ZNKSt6vectorIiSaIiEE8max_sizeEv
FNDA:2,_ZNKSt6vectorIPFPvS0_ESaIS2_EE8max_sizeEv
FNDA:1830,_ZNKSt6vectorIPvSaIS0_EE8max_sizeEv
FNDA:32,_ZNKSt6vectorI17_loop_spec_threadSaIS0_EE8max_sizeEv
FNDA:216,_ZNSt6vectorI17_loop_spec_threadSaIS0_EE6resizeEjS0_
FNDA:0,_ZNKSt6vectorIiSaIiEE8capacityEv
FNDA:816,_ZNKSt6vectorIiSaIiEE5emptyEv
FNDA:4,_ZNKSt6vectorI17_loop_spec_threadSaIS0_EE5emptyEv
FNDA:3615,_ZNSt6vectorIiSaIiEEixEj
FNDA:4,_ZNSt6vectorIPFPvS0_ESaIS2_EEixEj
FNDA:1449,_ZNSt6vectorIPvSaIS0_EEixEj
FNDA:5284,_ZNSt6vectorI17_loop_spec_threadSaIS0_EEixEj
FNDA:1098,_ZNSt6vectorIiSaIiEE9push_backERKi
FNDA:1102,_ZNSt6vectorIPvSaIS0_EE9push_backERKS0_
FNDA:4,_ZNSt6vectorIPFPvS0_ESaIS2_EE9push_backERKS2_
FNDA:216,_ZNSt6vectorI17_loop_spec_threadSaIS0_EE6insertEN9__gnu_cxx17__normal_iteratorIPS0_S2_EEjRKS0_
FNDA:0,_ZNSt6vectorIiSaIiEE6insertISt23_Rb_tree_const_iteratorIiEEEvN9__gnu_cxx17__normal_iteratorIPiS1_EET_S9_
FNDA:0,_ZNSt6vectorIiSaIiEE6insertIN9__gnu_cxx17__normal_iteratorIPiS1_EEEEvS6_T_S7_
FNDA:3,_ZNSt6vectorIPvSaIS0_EE5clearEv
FNDA:3,_ZNSt6vectorIPFPvS0_ESaIS2_EE5clearEv
FNDA:2,_ZNSt6vectorI17_loop_spec_threadSaIS0_EE5clearEv
FNDA:0,_ZNSt6vectorIiSaIiEE20_M_allocate_and_copyIN9__gnu_cxx17__normal_iteratorIPKiS1_EEEEPijT_S9_
FNDA:0,_ZNSt6vectorIiSaIiEE18_M_insert_dispatchISt23_Rb_tree_const_iteratorIiEEEvN9__gnu_cxx17__normal_iteratorIPiS1_EET_S9_St12__false_type
FNDA:0,_ZNSt6vectorIiSaIiEE18_M_insert_dispatchIN9__gnu_cxx17__normal_iteratorIPiS1_EEEEvS6_T_S7_St12__false_type
FNDA:914,_ZNKSt6vectorIiSaIiEE12_M_check_lenEjPKc
FNDA:1,_ZNKSt6vectorIPFPvS0_ESaIS2_EE12_M_check_lenEjPKc
FNDA:915,_ZNKSt6vectorIPvSaIS0_EE12_M_check_lenEjPKc
FNDA:16,_ZNKSt6vectorI17_loop_spec_threadSaIS0_EE12_M_check_lenEjPKc
FNDA:3,_ZNSt6vectorIPvSaIS0_EE15_M_erase_at_endEPS0_
FNDA:3,_ZNSt6vectorIPFPvS0_ESaIS2_EE15_M_erase_at_endEPS2_
FNDA:2,_ZNSt6vectorI17_loop_spec_threadSaIS0_EE15_M_erase_at_endEPS0_
FNF:100
FNH:94
BRDA:113,9999,0,1042
BRDA:113,9999,1,0
BRDA:113,9999,3,4
BRDA:113,9999,4,0
BRDA:113,9999,6,1042
BRDA:113,9999,7,0
BRDA:132,0,0,2204
BRDA:132,0,1,0
BRDA:132,1,3,1389
BRDA:132,1,4,0
BRDA:132,2,6,2
BRDA:132,2,7,0
BRDA:132,3,9,5
BRDA:132,3,10,0
BRDA:140,0,0,1952
BRDA:140,0,1,4
BRDA:140,4,3,5
BRDA:140,4,4,0
BRDA:140,8,6,1957
BRDA:140,8,7,0
BRDA:140,12,9,16
BRDA:140,12,10,0
BRDA:145,0,0,1952
BRDA:145,0,1,1166
BRDA:145,1,2,1957
BRDA:145,1,3,347
BRDA:145,2,4,16
BRDA:145,2,5,2
BRDA:145,3,6,5
BRDA:145,3,7,1
BRDA:243,9999,1,1042
BRDA:243,9999,2,0
BRDA:243,0,4,1042
BRDA:243,0,5,0
BRDA:243,1,7,1042
BRDA:243,1,8,0
BRDA:243,1,11,4
BRDA:243,1,12,0
BRDA:243,2,14,4
BRDA:243,2,15,0
BRDA:243,3,17,4
BRDA:243,3,18,0
BRDA:243,3,21,1042
BRDA:243,3,22,0
BRDA:243,4,24,1042
BRDA:243,4,25,0
BRDA:243,5,27,1042
BRDA:243,5,28,0
BRDA:313,0,1,2204
BRDA:313,0,2,0
BRDA:313,1,5,1389
BRDA:313,1,6,0
BRDA:313,2,9,5
BRDA:313,2,10,0
BRDA:313,3,13,2
BRDA:313,3,14,0
BRDA:555,0,1,0
BRDA:555,0,2,216
BRDA:743,0,0,184
BRDA:743,0,1,914
BRDA:743,1,2,187
BRDA:743,1,3,915
BRDA:743,2,4,3
BRDA:743,2,5,1
BRDA:970,9999,1,-
BRDA:970,9999,2,-
BRDA:976,9999,0,-
BRDA:976,9999,1,-
BRDA:1140,0,2,0
BRDA:1140,0,3,914
BRDA:1140,1,6,0
BRDA:1140,1,7,1
BRDA:1140,2,10,0
BRDA:1140,2,11,915
BRDA:1140,3,14,0
BRDA:1140,3,15,16
BRDA:1144,9999,1,914
BRDA:1144,9999,2,0
BRDA:1144,0,4,0
BRDA:1144,0,5,914
BRDA:1144,3,8,1
BRDA:1144,3,9,0
BRDA:1144,4,11,0
BRDA:1144,4,12,1
BRDA:1144,7,15,915
BRDA:1144,7,16,0
BRDA:1144,8,18,0
BRDA:1144,8,19,915
BRDA:1144,11,22,16
BRDA:1144,11,23,0
BRDA:1144,12,25,0
BRDA:1144,12,26,16
BRF:92
BRH:52
DA:75,3600
DA:80,1512
DA:81,1512
DA:82,1512
DA:84,2088
DA:85,2088
DA:86,2088
DA:93,11650
DA:94,11650
DA:97,5780
DA:98,5780
DA:104,1512
DA:105,1512
DA:110,2088
DA:111,2088
DA:113,2088
DA:114,2088
DA:115,2088
DA:116,2088
DA:131,3600
DA:132,3600
DA:133,3600
DA:139,3934
DA:140,3934
DA:143,5446
DA:145,5446
DA:146,3930
DA:147,5446
DA:207,1512
DA:208,1512
DA:241,2088
DA:242,2088
DA:243,2088
DA:247,2088
DA:312,3600
DA:313,3600
DA:314,3600
DA:426,1846
DA:427,1846
DA:435,2908
DA:436,2908
DA:444,2246
DA:445,2246
DA:453,2908
DA:454,2908
DA:533,14253
DA:534,14253
DA:538,3692
DA:539,3692
DA:553,216
DA:555,216
DA:556,0
DA:558,216
DA:559,216
DA:573,0
DA:575,0
DA:582,820
DA:583,820
DA:618,10352
DA:619,10352
DA:741,2204
DA:743,2204
DA:745,374
DA:746,374
DA:749,1830
DA:750,2204
DA:858,216
DA:859,216
DA:877,0
DA:882,0
DA:883,0
DA:954,8
DA:955,8
DA:964,0
DA:967,0
DA:970,0
DA:972,0
DA:974,0
DA:976,0
DA:977,0
DA:1101,0
DA:1106,0
DA:1107,0
DA:1138,1846
DA:1140,1846
DA:1141,0
DA:1143,1846
DA:1144,1846
DA:1152,8
DA:1154,8
DA:1155,8
DA:1156,8
LF:92
LH:75
end_of_record
SF:/usr/include/c++/4.5/bits/vector.tcc
FN:133,_ZNSt6vectorIPvSaIS0_EE5eraseEN9__gnu_cxx17__normal_iteratorIPS0_S2_EE
FN:133,_ZNSt6vectorIiSaIiEE5eraseEN9__gnu_cxx17__normal_iteratorIPiS1_EE
FN:156,_ZNSt6vectorIiSaIiEEaSERKS1_
FN:295,_ZNSt6vectorIiSaIiEE13_M_insert_auxEN9__gnu_cxx17__normal_iteratorIPiS1_EERKi
FN:295,_ZNSt6vectorIPFPvS0_ESaIS2_EE13_M_insert_auxEN9__gnu_cxx17__normal_iteratorIPS2_S4_EERKS2_
FN:295,_ZNSt6vectorIPvSaIS0_EE13_M_insert_auxEN9__gnu_cxx17__normal_iteratorIPS0_S2_EERKS0_
FN:372,_ZNSt6vectorI17_loop_spec_threadSaIS0_EE14_M_fill_insertEN9__gnu_cxx17__normal_iteratorIPS0_S2_EEjRKS0_
FN:478,_ZNSt6vectorIiSaIiEE15_M_range_insertIN9__gnu_cxx17__normal_iteratorIPiS1_EEEEvS6_T_S7_St20forward_iterator_tag
FN:478,_ZNSt6vectorIiSaIiEE15_M_range_insertISt23_Rb_tree_const_iteratorIiEEEvN9__gnu_cxx17__normal_iteratorIPiS1_EET_S9_St20forward_iterator_tag
FNDA:0,_ZNSt6vectorIiSaIiEE5eraseEN9__gnu_cxx17__normal_iteratorIPiS1_EE
FNDA:0,_ZNSt6vectorIPvSaIS0_EE5eraseEN9__gnu_cxx17__normal_iteratorIPS0_S2_EE
FNDA:0,_ZNSt6vectorIiSaIiEEaSERKS1_
FNDA:914,_ZNSt6vectorIiSaIiEE13_M_insert_auxEN9__gnu_cxx17__normal_iteratorIPiS1_EERKi
FNDA:915,_ZNSt6vectorIPvSaIS0_EE13_M_insert_auxEN9__gnu_cxx17__normal_iteratorIPS0_S2_EERKS0_
FNDA:1,_ZNSt6vectorIPFPvS0_ESaIS2_EE13_M_insert_auxEN9__gnu_cxx17__normal_iteratorIPS2_S4_EERKS2_
FNDA:216,_ZNSt6vectorI17_loop_spec_threadSaIS0_EE14_M_fill_insertEN9__gnu_cxx17__normal_iteratorIPS0_S2_EEjRKS0_
FNDA:0,_ZNSt6vectorIiSaIiEE15_M_range_insertISt23_Rb_tree_const_iteratorIiEEEvN9__gnu_cxx17__normal_iteratorIPiS1_EET_S9_St20forward_iterator_tag
FNDA:0,_ZNSt6vectorIiSaIiEE15_M_range_insertIN9__gnu_cxx17__normal_iteratorIPiS1_EEEEvS6_T_S7_St20forward_iterator_tag
FNF:9
FNH:4
BRDA:136,0,3,-
BRDA:136,0,4,-
BRDA:136,1,8,-
BRDA:136,1,9,-
BRDA:159,0,0,-
BRDA:159,0,1,-
BRDA:162,9999,1,-
BRDA:162,9999,2,-
BRDA:174,0,1,-
BRDA:174,0,2,-
BRDA:299,0,0,0
BRDA:299,0,1,914
BRDA:299,1,2,0
BRDA:299,1,3,915
BRDA:299,2,4,0
BRDA:299,2,5,1
BRDA:338,9999,2,914
BRDA:338,9999,3,0
BRDA:338,9999,7,915
BRDA:338,9999,8,0
BRDA:338,9999,12,1
BRDA:338,9999,13,0
BRDA:344,0,2,914
BRDA:344,0,3,0
BRDA:344,1,7,915
BRDA:344,1,8,0
BRDA:344,2,12,1
BRDA:344,2,13,0
BRDA:352,9999,0,-
BRDA:352,9999,1,-
BRDA:352,9999,2,-
BRDA:352,9999,3,-
BRDA:352,9999,4,-
BRDA:352,9999,5,-
BRDA:355,0,1,-
BRDA:355,0,2,-
BRDA:355,1,5,-
BRDA:355,1,6,-
BRDA:355,2,9,-
BRDA:355,2,10,-
BRDA:356,0,0,-
BRDA:356,0,1,-
BRDA:356,1,3,-
BRDA:356,1,4,-
BRDA:356,2,6,-
BRDA:356,2,7,-
BRDA:375,0,0,216
BRDA:375,0,1,0
BRDA:377,0,0,200
BRDA:377,0,1,16
BRDA:381,9999,0,200
BRDA:381,9999,1,0
BRDA:381,0,3,200
BRDA:381,0,4,0
BRDA:383,0,0,0
BRDA:383,0,1,200
BRDA:385,0,1,-
BRDA:385,0,2,-
BRDA:390,0,1,-
BRDA:390,0,2,-
BRDA:392,0,2,-
BRDA:392,0,3,-
BRDA:397,0,1,200
BRDA:397,0,2,0
BRDA:402,0,2,200
BRDA:402,0,3,0
BRDA:406,0,1,200
BRDA:406,0,2,0
BRDA:419,9999,1,16
BRDA:419,9999,2,0
BRDA:424,0,2,16
BRDA:424,0,3,0
BRDA:431,0,2,16
BRDA:431,0,3,0
BRDA:439,9999,0,-
BRDA:439,9999,1,-
BRDA:440,0,1,-
BRDA:440,0,2,-
BRDA:444,0,1,-
BRDA:444,0,2,-
BRDA:446,0,0,-
BRDA:446,0,1,-
BRDA:482,0,1,-
BRDA:482,0,2,-
BRDA:482,1,4,-
BRDA:482,1,5,-
BRDA:485,9999,0,-
BRDA:485,9999,1,-
BRDA:485,9999,2,-
BRDA:485,9999,3,-
BRDA:490,9999,0,-
BRDA:490,9999,1,-
BRDA:490,9999,2,-
BRDA:490,9999,3,-
BRDA:525,9999,2,-
BRDA:525,9999,3,-
BRDA:525,9999,7,-
BRDA:525,9999,8,-
BRDA:530,0,1,-
BRDA:530,0,2,-
BRDA:530,1,5,-
BRDA:530,1,6,-
BRDA:534,0,2,-
BRDA:534,0,3,-
BRDA:534,1,7,-
BRDA:534,1,8,-
BRDA:542,9999,1,-
BRDA:542,9999,2,-
BRDA:542,9999,5,-
BRDA:542,9999,6,-
BRDA:544,0,0,-
BRDA:544,0,1,-
BRDA:544,1,3,-
BRDA:544,1,4,-
BRF:114
BRH:21
DA:133,0
DA:136,0
DA:137,0
DA:138,0
DA:139,0
DA:140,0
DA:156,0
DA:159,0
DA:161,0
DA:162,0
DA:165,0
DA:166,0
DA:168,0
DA:171,0
DA:172,0
DA:174,0
DA:176,0
DA:181,0
DA:183,0
DA:188,0
DA:190,0
DA:295,1830
DA:299,1830
DA:301,0
DA:304,0
DA:306,0
DA:308,0
DA:312,0
DA:320,1830
DA:321,1830
DA:322,1830
DA:323,1830
DA:330,1830
DA:336,1830
DA:338,1830
DA:342,1830
DA:344,1830
DA:350,0
DA:352,0
DA:353,0
DA:355,0
DA:356,0
DA:357,0
DA:359,1830
DA:361,1830
DA:364,1830
DA:365,1830
DA:366,1830
DA:368,1830
DA:372,216
DA:375,216
DA:377,216
DA:380,400
DA:381,200
DA:382,200
DA:383,200
DA:385,0
DA:389,0
DA:390,0
DA:392,0
DA:397,200
DA:401,200
DA:402,200
DA:405,200
DA:406,200
DA:412,16
DA:413,16
DA:414,16
DA:415,16
DA:419,16
DA:422,16
DA:424,16
DA:429,16
DA:431,16
DA:437,0
DA:439,0
DA:440,0
DA:444,0
DA:446,0
DA:447,0
DA:449,16
DA:451,16
DA:454,16
DA:455,16
DA:456,16
DA:459,216
DA:478,0
DA:482,0
DA:484,0
DA:485,0
DA:488,0
DA:489,0
DA:490,0
DA:492,0
DA:496,0
DA:497,0
DA:499,0
DA:503,0
DA:504,0
DA:505,0
DA:508,0
DA:509,0
DA:513,0
DA:514,0
DA:520,0
DA:521,0
DA:522,0
DA:525,0
DA:530,0
DA:534,0
DA:540,0
DA:542,0
DA:544,0
DA:545,0
DA:547,0
DA:549,0
DA:552,0
DA:553,0
DA:554,0
DA:557,0
LF:120
LH:44
end_of_record
SF:/usr/include/c++/4.5/cmath
FN:184,_ZSt4ceilf
FNDA:1496,_ZSt4ceilf
FNF:1
FNH:1
DA:184,1496
DA:185,1496
LF:2
LH:2
end_of_record
SF:/usr/include/c++/4.5/ext/new_allocator.h
FN:66,_ZN9__gnu_cxx13new_allocatorIPvEC2Ev
FN:66,_ZN9__gnu_cxx13new_allocatorIPFPvS1_EEC2Ev
FN:66,_ZN9__gnu_cxx13new_allocatorISt13_Rb_tree_nodeIPvEEC2Ev
FN:66,_ZN9__gnu_cxx13new_allocatorISt13_Rb_tree_nodeIiEEC2Ev
FN:66,_ZN9__gnu_cxx13new_allocatorISt13_Rb_tree_nodeISt4pairIKPv16_data_access_logEEEC2Ev
FN:66,_ZN9__gnu_cxx13new_allocatorI17_loop_spec_threadEC2Ev
FN:66,_ZN9__gnu_cxx13new_allocatorISt13_Rb_tree_nodeISt4pairIKmiEEEC2Ev
FN:66,_ZN9__gnu_cxx13new_allocatorISt4pairIKPv16_data_access_logEEC2Ev
FN:66,_ZN9__gnu_cxx13new_allocatorISt4pairIKmiEEC2Ev
FN:66,_ZN9__gnu_cxx13new_allocatorIiEC2Ev
FN:68,_ZN9__gnu_cxx13new_allocatorIPvEC2ERKS2_
FN:68,_ZN9__gnu_cxx13new_allocatorISt13_Rb_tree_nodeIiEEC2ERKS3_
FN:68,_ZN9__gnu_cxx13new_allocatorIiEC2ERKS1_
FN:68,_ZN9__gnu_cxx13new_allocatorISt13_Rb_tree_nodeIPvEEC2ERKS4_
FN:68,_ZN9__gnu_cxx13new_allocatorIPFPvS1_EEC2ERKS4_
FN:73,_ZN9__gnu_cxx13new_allocatorISt13_Rb_tree_nodeIiEED2Ev
FN:73,_ZN9__gnu_cxx13new_allocatorISt13_Rb_tree_nodeISt4pairIKPv16_data_access_logEEED2Ev
FN:73,_ZN9__gnu_cxx13new_allocatorISt13_Rb_tree_nodeIPvEED2Ev
FN:73,_ZN9__gnu_cxx13new_allocatorIiED2Ev
FN:73,_ZN9__gnu_cxx13new_allocatorISt13_Rb_tree_nodeISt4pairIKmiEEED2Ev
FN:73,_ZN9__gnu_cxx13new_allocatorISt4pairIKPv16_data_access_logEED2Ev
FN:73,_ZN9__gnu_cxx13new_allocatorI17_loop_spec_threadED2Ev
FN:73,_ZN9__gnu_cxx13new_allocatorISt4pairIKmiEED2Ev
FN:73,_ZN9__gnu_cxx13new_allocatorIPFPvS1_EED2Ev
FN:73,_ZN9__gnu_cxx13new_allocatorIPvED2Ev
FN:84,_ZN9__gnu_cxx13new_allocatorISt13_Rb_tree_nodeISt4pairIKmiEEE8allocateEjPKv
FN:84,_ZN9__gnu_cxx13new_allocatorIiE8allocateEjPKv
FN:84,_ZN9__gnu_cxx13new_allocatorISt13_Rb_tree_nodeISt4pairIKPv16_data_access_logEEE8allocateEjPKv
FN:84,_ZN9__gnu_cxx13new_allocatorISt13_Rb_tree_nodeIiEE8allocateEjPKv
FN:84,_ZN9__gnu_cxx13new_allocatorI17_loop_spec_threadE8allocateEjPKv
FN:84,_ZN9__gnu_cxx13new_allocatorISt13_Rb_tree_nodeIPvEE8allocateEjPKv
FN:84,_ZN9__gnu_cxx13new_allocatorIPvE8allocateEjPKv
FN:84,_ZN9__gnu_cxx13new_allocatorIPFPvS1_EE8allocateEjPKv
FN:94,_ZN9__gnu_cxx13new_allocatorI17_loop_spec_threadE10deallocateEPS1_j
FN:94,_ZN9__gnu_cxx13new_allocatorISt13_Rb_tree_nodeISt4pairIKmiEEE10deallocateEPS5_j
FN:94,_ZN9__gnu_cxx13new_allocatorISt13_Rb_tree_nodeISt4pairIKPv16_data_access_logEEE10deallocateEPS7_j
FN:94,_ZN9__gnu_cxx13new_allocatorIPFPvS1_EE10deallocateEPS3_j
FN:94,_ZN9__gnu_cxx13new_allocatorISt13_Rb_tree_nodeIPvEE10deallocateEPS3_j
FN:94,_ZN9__gnu_cxx13new_allocatorIPvE10deallocateEPS1_j
FN:94,_ZN9__gnu_cxx13new_allocatorIiE10deallocateEPij
FN:94,_ZN9__gnu_cxx13new_allocatorISt13_Rb_tree_nodeIiEE10deallocateEPS2_j
FN:98,_ZNK9__gnu_cxx13new_allocatorI17_loop_spec_threadE8max_sizeEv
FN:98,_ZNK9__gnu_cxx13new_allocatorISt13_Rb_tree_nodeISt4pairIKmiEEE8max_sizeEv
FN:98,_ZNK9__gnu_cxx13new_allocatorISt13_Rb_tree_nodeIPvEE8max_sizeEv
FN:98,_ZNK9__gnu_cxx13new_allocatorIPFPvS1_EE8max_sizeEv
FN:98,_ZNK9__gnu_cxx13new_allocatorISt13_Rb_tree_nodeIiEE8max_sizeEv
FN:98,_ZNK9__gnu_cxx13new_allocatorISt13_Rb_tree_nodeISt4pairIKPv16_data_access_logEEE8max_sizeEv
FN:98,_ZNK9__gnu_cxx13new_allocatorIPvE8max_sizeEv
FN:98,_ZNK9__gnu_cxx13new_allocatorIiE8max_sizeEv
FN:104,_ZN9__gnu_cxx13new_allocatorIPvE9constructEPS1_RKS1_
FN:104,_ZN9__gnu_cxx13new_allocatorISt4pairIKPv16_data_access_logEE9constructEPS5_RKS5_
FN:104,_ZN9__gnu_cxx13new_allocatorISt4pairIKmiEE9constructEPS3_RKS3_
FN:104,_ZN9__gnu_cxx13new_allocatorIPFPvS1_EE9constructEPS3_RKS3_
FN:104,_ZN9__gnu_cxx13new_allocatorIiE9constructEPiRKi
FN:115,_ZN9__gnu_cxx13new_allocatorISt4pairIKPv16_data_access_logEE7destroyEPS5_
FN:115,_ZN9__gnu_cxx13new_allocatorIPFPvS1_EE7destroyEPS3_
FN:115,_ZN9__gnu_cxx13new_allocatorIPvE7destroyEPS1_
FN:115,_ZN9__gnu_cxx13new_allocatorISt4pairIKmiEE7destroyEPS3_
FN:115,_ZN9__gnu_cxx13new_allocatorIiE7destroyEPi
FNDA:1162,_ZN9__gnu_cxx13new_allocatorIiEC2Ev
FNDA:432,_ZN9__gnu_cxx13new_allocatorISt13_Rb_tree_nodeIPvEEC2Ev
FNDA:2,_ZN9__gnu_cxx13new_allocatorISt13_Rb_tree_nodeISt4pairIKmiEEEC2Ev
FNDA:346,_ZN9__gnu_cxx13new_allocatorISt13_Rb_tree_nodeIiEEC2Ev
FNDA:3267,_ZN9__gnu_cxx13new_allocatorIPvEC2Ev
FNDA:2,_ZN9__gnu_cxx13new_allocatorI17_loop_spec_threadEC2Ev
FNDA:2,_ZN9__gnu_cxx13new_allocatorISt13_Rb_tree_nodeISt4pairIKPv16_data_access_logEEEC2Ev
FNDA:1,_ZN9__gnu_cxx13new_allocatorIPFPvS1_EEC2Ev
FNDA:432,_ZN9__gnu_cxx13new_allocatorISt4pairIKmiEEC2Ev
FNDA:692,_ZN9__gnu_cxx13new_allocatorISt4pairIKPv16_data_access_logEEC2Ev
FNDA:1042,_ZN9__gnu_cxx13new_allocatorIiEC2ERKS1_
FNDA:1340,_ZN9__gnu_cxx13new_allocatorISt13_Rb_tree_nodeIPvEEC2ERKS4_
FNDA:4,_ZN9__gnu_cxx13new_allocatorIPFPvS1_EEC2ERKS4_
FNDA:1042,_ZN9__gnu_cxx13new_allocatorIPvEC2ERKS2_
FNDA:1038,_ZN9__gnu_cxx13new_allocatorISt13_Rb_tree_nodeIiEEC2ERKS3_
FNDA:1772,_ZN9__gnu_cxx13new_allocatorISt13_Rb_tree_nodeIPvEED2Ev
FNDA:2,_ZN9__gnu_cxx13new_allocatorISt13_Rb_tree_nodeISt4pairIKmiEEED2Ev
FNDA:1384,_ZN9__gnu_cxx13new_allocatorISt13_Rb_tree_nodeIiEED2Ev
FNDA:2,_ZN9__gnu_cxx13new_allocatorISt13_Rb_tree_nodeISt4pairIKPv16_data_access_logEEED2Ev
FNDA:2204,_ZN9__gnu_cxx13new_allocatorIiED2Ev
FNDA:4309,_ZN9__gnu_cxx13new_allocatorIPvED2Ev
FNDA:2,_ZN9__gnu_cxx13new_allocatorI17_loop_spec_threadED2Ev
FNDA:5,_ZN9__gnu_cxx13new_allocatorIPFPvS1_EED2Ev
FNDA:432,_ZN9__gnu_cxx13new_allocatorISt4pairIKmiEED2Ev
FNDA:692,_ZN9__gnu_cxx13new_allocatorISt4pairIKPv16_data_access_logEED2Ev
FNDA:1952,_ZN9__gnu_cxx13new_allocatorIiE8allocateEjPKv
FNDA:5,_ZN9__gnu_cxx13new_allocatorIPFPvS1_EE8allocateEjPKv
FNDA:1957,_ZN9__gnu_cxx13new_allocatorIPvE8allocateEjPKv
FNDA:16,_ZN9__gnu_cxx13new_allocatorI17_loop_spec_threadE8allocateEjPKv
FNDA:1460,_ZN9__gnu_cxx13new_allocatorISt13_Rb_tree_nodeIPvEE8allocateEjPKv
FNDA:0,_ZN9__gnu_cxx13new_allocatorISt13_Rb_tree_nodeIiEE8allocateEjPKv
FNDA:216,_ZN9__gnu_cxx13new_allocatorISt13_Rb_tree_nodeISt4pairIKmiEEE8allocateEjPKv
FNDA:346,_ZN9__gnu_cxx13new_allocatorISt13_Rb_tree_nodeISt4pairIKPv16_data_access_logEEE8allocateEjPKv
FNDA:1952,_ZN9__gnu_cxx13new_allocatorIiE10deallocateEPij
FNDA:1957,_ZN9__gnu_cxx13new_allocatorIPvE10deallocateEPS1_j
FNDA:16,_ZN9__gnu_cxx13new_allocatorI17_loop_spec_threadE10deallocateEPS1_j
FNDA:5,_ZN9__gnu_cxx13new_allocatorIPFPvS1_EE10deallocateEPS3_j
FNDA:1460,_ZN9__gnu_cxx13new_allocatorISt13_Rb_tree_nodeIPvEE10deallocateEPS3_j
FNDA:216,_ZN9__gnu_cxx13new_allocatorISt13_Rb_tree_nodeISt4pairIKmiEEE10deallocateEPS5_j
FNDA:0,_ZN9__gnu_cxx13new_allocatorISt13_Rb_tree_nodeIiEE10deallocateEPS2_j
FNDA:346,_ZN9__gnu_cxx13new_allocatorISt13_Rb_tree_nodeISt4pairIKPv16_data_access_logEEE10deallocateEPS7_j
FNDA:3780,_ZNK9__gnu_cxx13new_allocatorIiE8max_sizeEv
FNDA:7,_ZNK9__gnu_cxx13new_allocatorIPFPvS1_EE8max_sizeEv
FNDA:3787,_ZNK9__gnu_cxx13new_allocatorIPvE8max_sizeEv
FNDA:48,_ZNK9__gnu_cxx13new_allocatorI17_loop_spec_threadE8max_sizeEv
FNDA:1460,_ZNK9__gnu_cxx13new_allocatorISt13_Rb_tree_nodeIPvEE8max_sizeEv
FNDA:0,_ZNK9__gnu_cxx13new_allocatorISt13_Rb_tree_nodeIiEE8max_sizeEv
FNDA:216,_ZNK9__gnu_cxx13new_allocatorISt13_Rb_tree_nodeISt4pairIKmiEEE8max_sizeEv
FNDA:346,_ZNK9__gnu_cxx13new_allocatorISt13_Rb_tree_nodeISt4pairIKPv16_data_access_logEEE8max_sizeEv
FNDA:1098,_ZN9__gnu_cxx13new_allocatorIiE9constructEPiRKi
FNDA:4,_ZN9__gnu_cxx13new_allocatorIPFPvS1_EE9constructEPS3_RKS3_
FNDA:2562,_ZN9__gnu_cxx13new_allocatorIPvE9constructEPS1_RKS1_
FNDA:216,_ZN9__gnu_cxx13new_allocatorISt4pairIKmiEE9constructEPS3_RKS3_
FNDA:346,_ZN9__gnu_cxx13new_allocatorISt4pairIKPv16_data_access_logEE9constructEPS5_RKS5_
FNDA:0,_ZN9__gnu_cxx13new_allocatorIiE7destroyEPi
FNDA:1460,_ZN9__gnu_cxx13new_allocatorIPvE7destroyEPS1_
FNDA:0,_ZN9__gnu_cxx13new_allocatorIPFPvS1_EE7destroyEPS3_
FNDA:216,_ZN9__gnu_cxx13new_allocatorISt4pairIKmiEE7destroyEPS3_
FNDA:346,_ZN9__gnu_cxx13new_allocatorISt4pairIKPv16_data_access_logEE7destroyEPS5_
FNF:59
FNH:54
BRDA:86,0,1,0
BRDA:86,0,2,1952
BRDA:86,1,4,0
BRDA:86,1,5,5
BRDA:86,2,7,0
BRDA:86,2,8,1957
BRDA:86,3,10,0
BRDA:86,3,11,16
BRDA:86,4,13,0
BRDA:86,4,14,1460
BRDA:86,5,16,-
BRDA:86,5,17,-
BRDA:86,6,19,0
BRDA:86,6,20,216
BRDA:86,7,22,0
BRDA:86,7,23,346
BRDA:105,0,1,1098
BRDA:105,0,2,0
BRDA:105,4,4,4
BRDA:105,4,5,0
BRDA:105,8,7,2562
BRDA:105,8,8,0
BRDA:105,12,10,216
BRDA:105,12,11,0
BRDA:105,16,13,346
BRDA:105,16,14,0
BRDA:105,17,15,346
BRDA:105,17,16,0
BRF:28
BRH:13
DA:66,6338
DA:68,4466
DA:73,10804
DA:84,5952
DA:86,5952
DA:87,0
DA:89,5952
DA:94,5952
DA:95,5952
DA:98,9644
DA:99,9644
DA:104,4226
DA:105,4226
DA:115,2022
LF:14
LH:13
end_of_record
SF:/usr/include/c++/4.5/iostream
DA:73,1
LF:1
LH:1
end_of_record
SF:/usr/include/c++/4.5/new
FN:103,_ZnwjPv
FN:107,_ZdlPvS_
FNDA:4696,_ZnwjPv
FNDA:0,_ZdlPvS_
FNF:2
FNH:1
DA:103,4696
DA:107,0
LF:2
LH:1
end_of_record
SF:/usr/include/c++/4.5/ostream
FN:108,_ZNSolsEPFRSoS_E
FN:508,_ZStlsISt11char_traitsIcEERSt13basic_ostreamIcT_ES5_PKc
FN:541,_ZSt4endlIcSt11char_traitsIcEERSt13basic_ostreamIT_T0_ES6_
FN:562,_ZSt5flushIcSt11char_traitsIcEERSt13basic_ostreamIT_T0_ES6_
FNDA:0,_ZNSolsEPFRSoS_E
FNDA:0,_ZStlsISt11char_traitsIcEERSt13basic_ostreamIcT_ES5_PKc
FNDA:0,_ZSt4endlIcSt11char_traitsIcEERSt13basic_ostreamIT_T0_ES6_
FNDA:0,_ZSt5flushIcSt11char_traitsIcEERSt13basic_ostreamIT_T0_ES6_
FNF:4
FNH:0
BRDA:510,0,0,-
BRDA:510,0,1,-
BRF:2
BRH:0
DA:108,0
DA:113,0
DA:508,0
DA:510,0
DA:511,0
DA:513,0
DA:515,0
DA:541,0
DA:542,0
DA:562,0
DA:563,0
LF:11
LH:0
end_of_record
SF:/usr/include/c++/4.5/bits/allocator.h
FN:101,_ZNSaISt13_Rb_tree_nodeIPvEEC2Ev
FN:101,_ZNSaIPvEC2Ev
FN:101,_ZNSaI17_loop_spec_threadEC2Ev
FN:101,_ZNSaISt13_Rb_tree_nodeISt4pairIKmiEEEC2Ev
FN:101,_ZNSaIiEC2Ev
FN:101,_ZNSaISt13_Rb_tree_nodeIiEEC2Ev
FN:101,_ZNSaIPFPvS_EEC2Ev
FN:101,_ZNSaISt13_Rb_tree_nodeISt4pairIKPv16_data_access_logEEEC2Ev
FN:103,_ZNSaISt13_Rb_tree_nodeIPvEEC2ERKS2_
FN:103,_ZNSaIPFPvS_EEC2ERKS2_
FN:103,_ZNSaIPvEC2ERKS0_
FN:103,_ZNSaISt13_Rb_tree_nodeIiEEC2ERKS1_
FN:103,_ZNSaIiEC2ERKS_
FN:107,_ZNSaIiEC2ISt13_Rb_tree_nodeIiEEERKSaIT_E
FN:107,_ZNSaISt4pairIKmiEEC2ISt13_Rb_tree_nodeIS1_EEERKSaIT_E
FN:107,_ZNSaISt4pairIKPv16_data_access_logEEC2ISt13_Rb_tree_nodeIS3_EEERKSaIT_E
FN:107,_ZNSaIPvEC2ISt13_Rb_tree_nodeIS_EEERKSaIT_E
FN:109,_ZNSaI17_loop_spec_threadED2Ev
FN:109,_ZNSaIPFPvS_EED2Ev
FN:109,_ZNSaISt13_Rb_tree_nodeISt4pairIKPv16_data_access_logEEED2Ev
FN:109,_ZNSaISt4pairIKmiEED2Ev
FN:109,_ZNSaIiED2Ev
FN:109,_ZNSaISt13_Rb_tree_nodeISt4pairIKmiEEED2Ev
FN:109,_ZNSaISt4pairIKPv16_data_access_logEED2Ev
FN:109,_ZNSaISt13_Rb_tree_nodeIiEED2Ev
FN:109,_ZNSaISt13_Rb_tree_nodeIPvEED2Ev
FN:109,_ZNSaIPvED2Ev
FNDA:0,_ZNSaIiEC2Ev
FNDA:0,_ZNSaISt13_Rb_tree_nodeIPvEEC2Ev
FNDA:0,_ZNSaISt13_Rb_tree_nodeISt4pairIKmiEEEC2Ev
FNDA:0,_ZNSaISt13_Rb_tree_nodeIiEEC2Ev
FNDA:0,_ZNSaIPvEC2Ev
FNDA:0,_ZNSaI17_loop_spec_threadEC2Ev
FNDA:0,_ZNSaISt13_Rb_tree_nodeISt4pairIKPv16_data_access_logEEEC2Ev
FNDA:0,_ZNSaIPFPvS_EEC2Ev
FNDA:0,_ZNSaIiEC2ERKS_
FNDA:0,_ZNSaISt13_Rb_tree_nodeIPvEEC2ERKS2_
FNDA:0,_ZNSaIPFPvS_EEC2ERKS2_
FNDA:0,_ZNSaIPvEC2ERKS0_
FNDA:0,_ZNSaISt13_Rb_tree_nodeIiEEC2ERKS1_
FNDA:0,_ZNSaIiEC2ISt13_Rb_tree_nodeIiEEERKSaIT_E
FNDA:0,_ZNSaIPvEC2ISt13_Rb_tree_nodeIS_EEERKSaIT_E
FNDA:0,_ZNSaISt4pairIKmiEEC2ISt13_Rb_tree_nodeIS1_EEERKSaIT_E
FNDA:0,_ZNSaISt4pairIKPv16_data_access_logEEC2ISt13_Rb_tree_nodeIS3_EEERKSaIT_E
FNDA:0,_ZNSaISt13_Rb_tree_nodeIPvEED2Ev
FNDA:0,_ZNSaISt13_Rb_tree_nodeISt4pairIKmiEEED2Ev
FNDA:0,_ZNSaISt13_Rb_tree_nodeIiEED2Ev
FNDA:0,_ZNSaISt13_Rb_tree_nodeISt4pairIKPv16_data_access_logEEED2Ev
FNDA:0,_ZNSaIiED2Ev
FNDA:0,_ZNSaIPvED2Ev
FNDA:0,_ZNSaI17_loop_spec_threadED2Ev
FNDA:0,_ZNSaIPFPvS_EED2Ev
FNDA:0,_ZNSaISt4pairIKmiEED2Ev
FNDA:0,_ZNSaISt4pairIKPv16_data_access_logEED2Ev
FNF:27
FNH:0
BRDA:101,9999,0,-
BRDA:101,9999,2,-
BRDA:101,9999,3,-
BRDA:101,9999,5,-
BRDA:101,9999,6,-
BRDA:101,9999,8,-
BRDA:101,9999,9,-
BRDA:101,9999,11,-
BRDA:101,9999,12,-
BRDA:101,9999,14,-
BRDA:101,9999,15,-
BRDA:101,9999,17,-
BRDA:101,9999,18,-
BRDA:101,9999,20,-
BRDA:101,9999,21,-
BRDA:101,9999,23,-
BRDA:104,9999,0,-
BRDA:104,9999,2,-
BRDA:104,9999,3,-
BRDA:104,9999,5,-
BRDA:104,9999,6,-
BRDA:104,9999,8,-
BRDA:104,9999,9,-
BRDA:104,9999,11,-
BRDA:104,9999,12,-
BRDA:104,9999,14,-
BRDA:107,9999,0,-
BRDA:107,9999,2,-
BRDA:107,9999,3,-
BRDA:107,9999,5,-
BRDA:107,9999,6,-
BRDA:107,9999,8,-
BRDA:107,9999,9,-
BRDA:107,9999,11,-
BRDA:109,9999,0,-
BRDA:109,9999,2,-
BRDA:109,9999,3,-
BRDA:109,9999,5,-
BRDA:109,9999,6,-
BRDA:109,9999,8,-
BRDA:109,9999,9,-
BRDA:109,9999,11,-
BRDA:109,9999,12,-
BRDA:109,9999,14,-
BRDA:109,9999,15,-
BRDA:109,9999,17,-
BRDA:109,9999,18,-
BRDA:109,9999,20,-
BRDA:109,9999,21,-
BRDA:109,9999,23,-
BRDA:109,9999,24,-
BRDA:109,9999,26,-
BRDA:109,9999,27,-
BRDA:109,9999,29,-
BRF:54
BRH:0
DA:101,0
DA:103,0
DA:104,0
DA:107,0
DA:109,0
LF:5
LH:0
end_of_record
SF:/usr/include/c++/4.5/bits/basic_ios.h
FN:46,_ZSt13__check_facetISt5ctypeIcEERKT_PS3_
FN:127,_ZNKSt9basic_iosIcSt11char_traitsIcEE7rdstateEv
FN:147,_ZNSt9basic_iosIcSt11char_traitsIcEE8setstateESt12_Ios_Iostate
FN:439,_ZNKSt9basic_iosIcSt11char_traitsIcEE5widenEc
FNDA:0,_ZSt13__check_facetISt5ctypeIcEERKT_PS3_
FNDA:0,_ZNKSt9basic_iosIcSt11char_traitsIcEE7rdstateEv
FNDA:0,_ZNSt9basic_iosIcSt11char_traitsIcEE8setstateESt12_Ios_Iostate
FNDA:0,_ZNKSt9basic_iosIcSt11char_traitsIcEE5widenEc
FNF:4
FNH:0
BRDA:48,9999,0,-
BRDA:48,9999,1,-
BRDA:50,9999,0,-
BRDA:128,9999,0,-
BRDA:148,9999,0,-
BRDA:148,9999,2,-
BRDA:148,9999,4,-
BRDA:148,9999,6,-
BRDA:440,9999,0,-
BRDA:440,9999,2,-
BRDA:440,9999,4,-
BRF:11
BRH:0
DA:46,0
DA:48,0
DA:49,0
DA:50,0
DA:127,0
DA:128,0
DA:147,0
DA:148,0
DA:439,0
DA:440,0
LF:10
LH:0
end_of_record
SF:/usr/include/c++/4.5/bits/char_traits.h
FN:262,_ZNSt11char_traitsIcE6lengthEPKc
FNDA:0,_ZNSt11char_traitsIcE6lengthEPKc
FNF:1
FNH:0
BRDA:263,9999,0,-
BRF:1
BRH:0
DA:262,0
DA:263,0
LF:2
LH:0
end_of_record
SF:/usr/include/c++/4.5/cmath
FN:184,_ZSt4ceilf
FNDA:0,_ZSt4ceilf
FNF:1
FNH:0
BRDA:185,9999,0,-
BRF:1
BRH:0
DA:184,0
DA:185,0
LF:2
LH:0
end_of_record
SF:/home/gabriel/Escritorio/Version Final/criba_eratostenes.cpp
FN:39,_Z11my_difftimeP7timevalS0_
FN:60,_Z41__static_initialization_and_destruction_0ii
FN:63,_Z10initializePv
FN:76,_Z12initialize_cPv
FN:88,_Z10get_primesPv
FN:97,_Z20get_primes_and_sleepPv
FN:109,main
FN:314,_GLOBAL__I__Z11my_difftimeP7timevalS0_
FNDA:4,_Z11my_difftimeP7timevalS0_
FNDA:10,_Z10initializePv
FNDA:10,_Z12initialize_cPv
FNDA:98,_Z10get_primesPv
FNDA:98,_Z20get_primes_and_sleepPv
FNDA:1,main
FNDA:1,_Z41__static_initialization_and_destruction_0ii
FNDA:1,_GLOBAL__I__Z11my_difftimeP7timevalS0_
FNF:8
FNH:8
BRDA:43,0,0,2
BRDA:43,0,1,2
BRDA:51,0,0,2
BRDA:51,0,1,0
BRDA:68,2,0,100
BRDA:68,2,1,10
BRDA:70,0,1,0
BRDA:70,0,2,100
BRDA:81,1,0,100
BRDA:81,1,1,10
BRDA:90,1,1,276
BRDA:90,1,2,98
BRDA:99,1,1,276
BRDA:99,1,2,98
BRDA:119,0,0,1
BRDA:119,0,1,0
BRDA:119,1,3,1
BRDA:119,1,4,0
BRDA:120,0,0,1
BRDA:120,0,1,0
BRDA:121,0,0,1
BRDA:121,0,1,0
BRDA:121,1,3,1
BRDA:121,1,4,0
BRDA:122,0,0,1
BRDA:122,0,1,0
BRDA:124,0,0,1
BRDA:124,0,1,0
BRDA:124,1,3,1
BRDA:124,1,4,0
BRDA:128,0,0,1
BRDA:128,0,1,0
BRDA:128,1,3,1
BRDA:128,1,4,0
BRDA:132,9999,0,1
BRDA:132,9999,1,0
BRDA:132,0,3,1
BRDA:132,0,4,0
BRDA:132,1,6,1
BRDA:132,1,7,0
BRDA:132,2,9,1
BRDA:132,2,10,0
BRDA:132,3,12,1
BRDA:132,3,13,0
BRDA:135,2,0,9
BRDA:135,2,1,1
BRDA:136,0,0,9
BRDA:136,0,1,0
BRDA:141,0,0,1
BRDA:141,0,1,0
BRDA:142,0,0,1
BRDA:142,0,1,0
BRDA:147,0,0,1
BRDA:147,0,1,0
BRDA:148,0,0,1
BRDA:148,0,1,0
BRDA:149,0,0,1
BRDA:149,0,1,0
BRDA:150,0,0,1
BRDA:150,0,1,0
BRDA:151,0,0,1
BRDA:151,0,1,0
BRDA:151,1,3,1
BRDA:151,1,4,0
BRDA:151,2,6,1
BRDA:151,2,7,0
BRDA:151,3,9,1
BRDA:151,3,10,0
BRDA:151,4,12,1
BRDA:151,4,13,0
BRDA:152,2,0,97
BRDA:152,2,1,1
BRDA:153,0,0,97
BRDA:153,0,1,0
BRDA:155,0,0,1
BRDA:155,0,1,0
BRDA:156,0,0,1
BRDA:156,0,1,0
BRDA:160,9999,0,1
BRDA:160,9999,1,0
BRDA:160,0,3,1
BRDA:160,0,4,0
BRDA:162,0,0,1
BRDA:162,0,1,0
BRDA:162,1,3,1
BRDA:162,1,4,0
BRDA:164,2,0,98
BRDA:164,2,1,1
BRDA:165,0,0,25
BRDA:165,0,1,73
BRDA:166,0,0,25
BRDA:166,0,1,0
BRDA:166,1,3,25
BRDA:166,1,4,0
BRDA:169,0,0,1
BRDA:169,0,1,0
BRDA:172,9999,0,1
BRDA:172,9999,1,0
BRDA:179,0,0,1
BRDA:179,0,1,0
BRDA:179,1,3,1
BRDA:179,1,4,0
BRDA:183,1,0,100
BRDA:183,1,1,1
BRDA:186,2,0,98
BRDA:186,2,1,1
BRDA:187,2,1,276
BRDA:187,2,2,98
BRDA:193,9999,0,1
BRDA:193,9999,1,0
BRDA:193,0,3,1
BRDA:193,0,4,0
BRDA:195,0,0,1
BRDA:195,0,1,0
BRDA:195,1,3,1
BRDA:195,1,4,0
BRDA:197,2,0,98
BRDA:197,2,1,1
BRDA:198,0,0,25
BRDA:198,0,1,73
BRDA:199,0,0,25
BRDA:199,0,1,0
BRDA:199,1,3,25
BRDA:199,1,4,0
BRDA:202,0,0,1
BRDA:202,0,1,0
BRDA:205,9999,0,1
BRDA:205,9999,1,0
BRDA:210,0,0,1
BRDA:210,0,1,0
BRDA:210,1,3,1
BRDA:210,1,4,0
BRDA:211,0,0,1
BRDA:211,0,1,0
BRDA:211,1,3,1
BRDA:211,1,4,0
BRDA:212,0,0,1
BRDA:212,0,1,0
BRDA:212,1,3,1
BRDA:212,1,4,0
BRDA:213,0,0,1
BRDA:213,0,1,0
BRDA:213,1,3,1
BRDA:213,1,4,0
BRDA:215,0,0,1
BRDA:215,0,1,0
BRDA:216,0,0,1
BRDA:216,0,1,0
BRDA:218,0,0,1
BRDA:218,0,1,0
BRDA:219,0,0,1
BRDA:219,0,1,0
BRDA:221,0,0,1
BRDA:221,0,1,0
BRDA:221,1,3,1
BRDA:221,1,4,0
BRDA:225,0,0,1
BRDA:225,0,1,0
BRDA:225,1,3,1
BRDA:225,1,4,0
BRDA:231,9999,0,1
BRDA:231,9999,1,0
BRDA:231,0,3,1
BRDA:231,0,4,0
BRDA:231,1,6,1
BRDA:231,1,7,0
BRDA:231,2,9,1
BRDA:231,2,10,0
BRDA:231,3,12,1
BRDA:231,3,13,0
BRDA:234,2,0,9
BRDA:234,2,1,1
BRDA:235,0,0,9
BRDA:235,0,1,0
BRDA:240,0,0,1
BRDA:240,0,1,0
BRDA:241,0,0,1
BRDA:241,0,1,0
BRDA:246,0,0,1
BRDA:246,0,1,0
BRDA:247,0,0,1
BRDA:247,0,1,0
BRDA:248,0,0,1
BRDA:248,0,1,0
BRDA:249,0,0,1
BRDA:249,0,1,0
BRDA:250,0,0,1
BRDA:250,0,1,0
BRDA:250,1,3,1
BRDA:250,1,4,0
BRDA:251,0,0,1
BRDA:251,0,1,0
BRDA:251,1,3,1
BRDA:251,1,4,0
BRDA:251,2,6,1
BRDA:251,2,7,0
BRDA:251,3,9,1
BRDA:251,3,10,0
BRDA:251,4,12,1
BRDA:251,4,13,0
BRDA:252,2,0,97
BRDA:252,2,1,1
BRDA:253,0,0,97
BRDA:253,0,1,0
BRDA:255,0,0,1
BRDA:255,0,1,0
BRDA:256,0,0,1
BRDA:256,0,1,0
BRDA:260,9999,0,1
BRDA:260,9999,1,0
BRDA:260,0,3,1
BRDA:260,0,4,0
BRDA:262,0,0,1
BRDA:262,0,1,0
BRDA:262,1,3,1
BRDA:262,1,4,0
BRDA:264,2,0,98
BRDA:264,2,1,1
BRDA:265,0,0,25
BRDA:265,0,1,73
BRDA:266,0,0,25
BRDA:266,0,1,0
BRDA:266,1,3,25
BRDA:266,1,4,0
BRDA:269,0,0,1
BRDA:269,0,1,0
BRDA:272,9999,0,1
BRDA:272,9999,1,0
BRDA:276,0,0,1
BRDA:276,0,1,0
BRDA:276,1,3,1
BRDA:276,1,4,0
BRDA:280,0,0,1
BRDA:280,0,1,0
BRDA:280,1,3,1
BRDA:280,1,4,0
BRDA:284,1,0,100
BRDA:284,1,1,1
BRDA:287,2,0,98
BRDA:287,2,1,1
BRDA:288,2,1,276
BRDA:288,2,2,98
BRDA:291,0,0,98
BRDA:291,0,1,0
BRDA:295,9999,0,1
BRDA:295,9999,1,0
BRDA:295,0,3,1
BRDA:295,0,4,0
BRDA:297,0,0,1
BRDA:297,0,1,0
BRDA:297,1,3,1
BRDA:297,1,4,0
BRDA:299,2,0,98
BRDA:299,2,1,1
BRDA:300,0,0,25
BRDA:300,0,1,73
BRDA:301,0,0,25
BRDA:301,0,1,0
BRDA:301,1,3,25
BRDA:301,1,4,0
BRDA:304,0,0,1
BRDA:304,0,1,0
BRDA:307,9999,0,1
BRDA:307,9999,1,0
BRDA:311,0,0,1
BRDA:311,0,1,0
BRDA:311,1,3,1
BRDA:311,1,4,0
BRDA:314,0,0,1
BRDA:314,0,1,0
BRDA:314,1,2,1
BRDA:314,1,3,0
BRF:272
BRH:159
DA:39,4
DA:41,4
DA:43,4
DA:44,2
DA:45,2
DA:48,2
DA:49,2
DA:50,2
DA:51,2
DA:52,2
DA:53,2
DA:57,4
DA:60,1
DA:63,10
DA:64,10
DA:65,10
DA:67,10
DA:68,110
DA:69,100
DA:70,100
DA:73,10
DA:74,10
DA:76,10
DA:77,10
DA:78,10
DA:80,10
DA:81,110
DA:82,100
DA:83,100
DA:85,10
DA:86,10
DA:88,98
DA:89,98
DA:90,374
DA:91,276
DA:92,276
DA:94,98
DA:95,98
DA:97,98
DA:98,98
DA:99,374
DA:100,276
DA:101,276
DA:103,98
DA:104,98
DA:105,98
DA:109,1
DA:116,1
DA:117,1
DA:119,2
DA:120,1
DA:121,2
DA:122,1
DA:124,1
DA:128,1
DA:130,1
DA:132,1
DA:135,10
DA:136,9
DA:141,1
DA:142,1
DA:147,1
DA:148,1
DA:149,1
DA:150,1
DA:151,1
DA:152,98
DA:153,97
DA:155,1
DA:156,1
DA:158,1
DA:160,1
DA:162,1
DA:164,99
DA:165,98
DA:166,25
DA:169,1
DA:171,1
DA:172,1
DA:174,1
DA:179,1
DA:181,1
DA:183,101
DA:184,100
DA:186,99
DA:187,374
DA:188,276
DA:191,1
DA:193,1
DA:195,1
DA:197,99
DA:198,98
DA:199,25
DA:202,1
DA:204,1
DA:205,1
DA:207,1
DA:210,1
DA:211,1
DA:212,1
DA:213,1
DA:215,1
DA:216,1
DA:218,1
DA:219,1
DA:221,1
DA:225,1
DA:227,1
DA:231,1
DA:234,10
DA:235,9
DA:240,1
DA:241,1
DA:246,1
DA:247,1
DA:248,1
DA:249,1
DA:250,1
DA:251,1
DA:252,98
DA:253,97
DA:255,1
DA:256,1
DA:258,1
DA:260,1
DA:262,1
DA:264,99
DA:265,98
DA:266,25
DA:269,1
DA:271,1
DA:272,1
DA:274,1
DA:276,1
DA:280,1
DA:282,1
DA:284,101
DA:285,100
DA:287,99
DA:288,374
DA:289,276
DA:291,98
DA:293,1
DA:295,1
DA:297,1
DA:299,99
DA:300,98
DA:301,25
DA:304,1
DA:306,1
DA:307,1
DA:309,1
DA:311,1
DA:314,3
LF:154
LH:154
end_of_record
SF:/usr/include/c++/4.5/bits/ios_base.h
FN:166,_ZStorSt12_Ios_IostateS_
FNDA:0,_ZStorSt12_Ios_IostateS_
FNF:1
FNH:0
BRDA:167,9999,0,-
BRF:1
BRH:0
DA:166,0
DA:167,0
LF:2
LH:0
end_of_record
SF:/usr/include/c++/4.5/iostream
BRDA:73,9999,0,-
BRDA:73,9999,2,-
BRF:2
BRH:0
DA:73,0
LF:1
LH:0
end_of_record
SF:/usr/include/c++/4.5/bits/locale_facets.h
FN:864,_ZNKSt5ctypeIcE5widenEc
FNDA:0,_ZNKSt5ctypeIcE5widenEc
FNF:1
FNH:0
BRDA:866,9999,0,-
BRDA:866,9999,1,-
BRDA:867,9999,0,-
BRDA:868,9999,0,-
BRDA:869,9999,0,-
BRDA:869,9999,2,-
BRDA:869,9999,3,-
BRF:7
BRH:0
DA:864,0
DA:866,0
DA:867,0
DA:868,0
DA:869,0
LF:5
LH:0
end_of_record
SF:/home/gabriel/Escritorio/Version Final/loop_speculator.h
FN:22,_ZN17_loop_spec_threadaSERKS_
FN:22,_ZN17_loop_spec_threadD2Ev
FN:22,_ZN17_loop_spec_threadC2ERKS_
FN:38,_ZN17_loop_spec_threadC2Ev
FN:49,_ZN16_data_access_logD2Ev
FN:49,_ZN16_data_access_logC2ERKS_
FN:60,_ZN16_data_access_logC2Ev
FN:66,_ZN16_data_access_log28_output_violations_are_falseIbEEbPT_i
FN:112,_ZN16_data_access_log22_cancel_higher_readersEi
FN:144,_ZN16_data_access_log19_get_previous_valueEi
FN:189,_ZN16_data_access_log22_cancel_higher_writersEi
FN:246,_ZN15loop_speculatorD2Ev
FN:307,_ZN15loop_speculator35_cancel_spec_threads_and_reset_logsESt6vectorIiSaIiEE
FN:442,_ZN15loop_speculator27_cancel_higher_spec_threadsEi
FN:554,_ZN15loop_speculator19_reset_spec_threadsEiPvSt6vectorIiSaIiEE
FN:717,_ZN15loop_speculatorC2Ev
FN:737,_ZN15loop_speculator15get_shared_dataEv
FN:790,_ZN15loop_speculator6commitEv
FN:974,_ZN15loop_speculator10write_dataIbEEiRPT_S2_
FN:1157,_ZN15loop_speculator6appendEPFPvS0_ES0_
FN:1528,_ZN15loop_speculator9speculateERPvSt6vectorIPFS0_S0_ESaIS4_EES2_IS0_SaIS0_EE
FN:1619,_ZN15loop_speculator11get_resultsEv
FNDA:886,_ZN17_loop_spec_threadD2Ev
FNDA:670,_ZN17_loop_spec_threadC2ERKS_
FNDA:0,_ZN17_loop_spec_threadaSERKS_
FNDA:216,_ZN17_loop_spec_threadC2Ev
FNDA:1384,_ZN16_data_access_logD2Ev
FNDA:1038,_ZN16_data_access_logC2ERKS_
FNDA:346,_ZN16_data_access_logC2Ev
FNDA:406,_ZN16_data_access_log28_output_violations_are_falseIbEEbPT_i
FNDA:406,_ZN16_data_access_log22_cancel_higher_readersEi
FNDA:0,_ZN16_data_access_log19_get_previous_valueEi
FNDA:0,_ZN16_data_access_log22_cancel_higher_writersEi
FNDA:2,_ZN15loop_speculatorD2Ev
FNDA:4,_ZN15loop_speculator35_cancel_spec_threads_and_reset_logsESt6vectorIiSaIiEE
FNDA:0,_ZN15loop_speculator27_cancel_higher_spec_threadsEi
FNDA:0,_ZN15loop_speculator19_reset_spec_threadsEiPvSt6vectorIiSaIiEE
FNDA:2,_ZN15loop_speculatorC2Ev
FNDA:752,_ZN15loop_speculator15get_shared_dataEv
FNDA:220,_ZN15loop_speculator6commitEv
FNDA:752,_ZN15loop_speculator10write_dataIbEEiRPT_S2_
FNDA:212,_ZN15loop_speculator6appendEPFPvS0_ES0_
FNDA:4,_ZN15loop_speculator9speculateERPvSt6vectorIPFS0_S0_ESaIS4_EES2_IS0_SaIS0_EE
FNDA:4,_ZN15loop_speculator11get_resultsEv
FNF:22
FNH:17
BRDA:22,0,0,886
BRDA:22,0,1,0
BRDA:22,3,7,670
BRDA:22,3,8,0
BRDA:38,0,1,216
BRDA:38,0,2,0
BRDA:49,0,0,1384
BRDA:49,0,1,0
BRDA:49,1,3,1384
BRDA:49,1,4,0
BRDA:49,5,11,1038
BRDA:49,5,12,0
BRDA:49,6,14,1038
BRDA:49,6,15,0
BRDA:60,0,1,346
BRDA:60,0,2,0
BRDA:60,1,4,346
BRDA:60,1,5,0
BRDA:73,2,1,1598
BRDA:73,2,2,406
BRDA:74,0,1,406
BRDA:74,0,2,1192
BRDA:77,0,1,683
BRDA:77,0,2,509
BRDA:78,0,1,178
BRDA:78,0,2,505
BRDA:79,0,0,178
BRDA:79,0,1,0
BRDA:80,0,1,0
BRDA:80,0,2,178
BRDA:85,0,1,-
BRDA:85,0,2,-
BRDA:86,0,1,-
BRDA:86,0,2,-
BRDA:96,0,0,228
BRDA:96,0,1,178
BRDA:101,2,1,647
BRDA:101,2,2,178
BRDA:102,0,1,178
BRDA:102,0,2,469
BRDA:116,9999,0,406
BRDA:116,9999,1,0
BRDA:117,1,0,406
BRDA:117,1,1,0
BRDA:117,2,3,0
BRDA:117,2,4,406
BRDA:117,3,5,-
BRDA:117,3,6,-
BRDA:117,4,9,-
BRDA:117,4,10,-
BRDA:117,7,11,0
BRDA:117,7,12,406
BRDA:118,0,1,-
BRDA:118,0,2,-
BRDA:119,0,1,-
BRDA:119,0,2,-
BRDA:120,0,1,-
BRDA:120,0,2,-
BRDA:121,0,0,-
BRDA:121,0,1,-
BRDA:127,0,0,406
BRDA:127,0,1,0
BRDA:127,1,3,0
BRDA:127,1,4,406
BRDA:127,2,5,-
BRDA:127,2,6,-
BRDA:127,3,8,-
BRDA:127,3,9,-
BRDA:127,6,10,0
BRDA:127,6,11,406
BRDA:128,2,1,-
BRDA:128,2,2,-
BRDA:130,1,0,-
BRDA:130,1,1,-
BRDA:130,2,3,-
BRDA:130,2,4,-
BRDA:130,3,6,-
BRDA:130,3,7,-
BRDA:130,6,8,-
BRDA:130,6,9,-
BRDA:131,0,2,-
BRDA:131,0,3,-
BRDA:132,0,0,-
BRDA:132,0,1,-
BRDA:132,1,3,-
BRDA:132,1,4,-
BRDA:132,2,6,-
BRDA:132,2,7,-
BRDA:133,0,0,-
BRDA:133,0,1,-
BRDA:133,1,3,-
BRDA:133,1,4,-
BRDA:133,2,6,-
BRDA:133,2,7,-
BRDA:150,2,1,-
BRDA:150,2,2,-
BRDA:153,0,1,-
BRDA:153,0,2,-
BRDA:154,0,0,-
BRDA:154,0,1,-
BRDA:158,0,1,-
BRDA:158,0,2,-
BRDA:165,0,0,-
BRDA:165,0,1,-
BRDA:166,2,1,-
BRDA:166,2,2,-
BRDA:167,0,1,-
BRDA:167,0,2,-
BRDA:168,0,0,-
BRDA:168,0,1,-
BRDA:172,0,1,-
BRDA:172,0,2,-
BRDA:182,0,0,-
BRDA:182,0,1,-
BRDA:197,0,0,-
BRDA:197,0,1,-
BRDA:197,1,3,-
BRDA:197,1,4,-
BRDA:197,2,6,-
BRDA:197,2,7,-
BRDA:197,5,8,-
BRDA:197,5,9,-
BRDA:198,0,1,-
BRDA:198,0,2,-
BRDA:199,0,1,-
BRDA:199,0,2,-
BRDA:200,0,0,-
BRDA:200,0,1,-
BRDA:200,1,3,-
BRDA:200,1,4,-
BRDA:200,2,6,-
BRDA:200,2,7,-
BRDA:201,0,0,-
BRDA:201,0,1,-
BRDA:201,1,3,-
BRDA:201,1,4,-
BRDA:201,2,6,-
BRDA:201,2,7,-
BRDA:208,0,0,-
BRDA:208,0,1,-
BRDA:209,0,0,-
BRDA:209,0,1,-
BRDA:209,1,3,-
BRDA:209,1,4,-
BRDA:209,2,6,-
BRDA:209,2,7,-
BRDA:209,3,9,-
BRDA:209,3,10,-
BRDA:210,0,0,-
BRDA:210,0,1,-
BRDA:210,1,3,-
BRDA:210,1,4,-
BRDA:210,2,5,-
BRDA:210,2,6,-
BRDA:210,3,8,-
BRDA:210,3,9,-
BRDA:210,6,10,-
BRDA:210,6,11,-
BRDA:211,2,1,-
BRDA:211,2,2,-
BRDA:212,0,1,-
BRDA:212,0,2,-
BRDA:246,0,0,2
BRDA:246,0,1,0
BRDA:246,1,3,2
BRDA:246,1,4,0
BRDA:312,0,1,0
BRDA:312,0,2,4
BRDA:314,2,1,-
BRDA:314,2,2,-
BRDA:316,0,1,-
BRDA:316,0,2,-
BRDA:316,1,5,-
BRDA:316,1,6,-
BRDA:316,4,7,-
BRDA:316,4,8,-
BRDA:332,9999,0,0
BRDA:332,9999,1,4
BRDA:336,0,1,2
BRDA:336,0,2,2
BRDA:341,0,1,2
BRDA:341,0,2,2
BRDA:346,0,0,0
BRDA:346,0,1,2
BRDA:358,1,4,20
BRDA:358,1,5,2
BRDA:359,0,1,0
BRDA:359,0,2,20
BRDA:361,9999,0,-
BRDA:361,9999,1,-
BRDA:373,9999,1,2
BRDA:373,9999,2,0
BRDA:379,0,1,0
BRDA:379,0,2,2
BRDA:383,0,0,0
BRDA:383,0,1,2
BRDA:396,0,0,0
BRDA:396,0,1,4
BRDA:446,0,0,-
BRDA:446,0,1,-
BRDA:446,1,3,-
BRDA:446,1,4,-
BRDA:446,4,5,-
BRDA:446,4,6,-
BRDA:449,9999,0,-
BRDA:449,9999,1,-
BRDA:449,9999,3,-
BRDA:449,9999,4,-
BRDA:452,0,0,-
BRDA:452,0,1,-
BRDA:455,2,1,-
BRDA:455,2,2,-
BRDA:456,0,0,-
BRDA:456,0,1,-
BRDA:460,9999,0,-
BRDA:460,9999,1,-
BRDA:460,2,4,-
BRDA:460,2,5,-
BRDA:460,3,8,-
BRDA:460,3,9,-
BRDA:461,0,1,-
BRDA:461,0,2,-
BRDA:467,9999,0,-
BRDA:467,9999,1,-
BRDA:467,2,4,-
BRDA:467,2,5,-
BRDA:467,3,8,-
BRDA:467,3,9,-
BRDA:469,0,2,-
BRDA:469,0,3,-
BRDA:469,3,8,-
BRDA:469,3,9,-
BRDA:469,4,12,-
BRDA:469,4,13,-
BRDA:471,0,0,-
BRDA:471,0,1,-
BRDA:471,1,4,-
BRDA:471,1,5,-
BRDA:471,2,8,-
BRDA:471,2,9,-
BRDA:473,0,1,-
BRDA:473,0,2,-
BRDA:477,0,1,-
BRDA:477,0,2,-
BRDA:479,0,2,-
BRDA:479,0,3,-
BRDA:483,0,2,-
BRDA:483,0,3,-
BRDA:483,3,8,-
BRDA:483,3,9,-
BRDA:483,4,12,-
BRDA:483,4,13,-
BRDA:485,0,0,-
BRDA:485,0,1,-
BRDA:485,1,4,-
BRDA:485,1,5,-
BRDA:485,2,8,-
BRDA:485,2,9,-
BRDA:487,0,1,-
BRDA:487,0,2,-
BRDA:491,0,1,-
BRDA:491,0,2,-
BRDA:493,0,2,-
BRDA:493,0,3,-
BRDA:501,9999,0,-
BRDA:501,9999,1,-
BRDA:504,0,0,-
BRDA:504,0,1,-
BRDA:504,3,4,-
BRDA:504,3,5,-
BRDA:504,4,8,-
BRDA:504,4,9,-
BRDA:505,0,1,-
BRDA:505,0,2,-
BRDA:507,9999,3,-
BRDA:507,9999,4,-
BRDA:508,0,2,-
BRDA:508,0,3,-
BRDA:510,0,2,-
BRDA:510,0,3,-
BRDA:517,0,0,-
BRDA:517,0,1,-
BRDA:517,3,4,-
BRDA:517,3,5,-
BRDA:517,4,8,-
BRDA:517,4,9,-
BRDA:519,0,1,-
BRDA:519,0,2,-
BRDA:519,1,5,-
BRDA:519,1,6,-
BRDA:520,0,1,-
BRDA:520,0,2,-
BRDA:520,1,5,-
BRDA:520,1,6,-
BRDA:520,2,8,-
BRDA:520,2,9,-
BRDA:521,0,1,-
BRDA:521,0,2,-
BRDA:521,1,5,-
BRDA:521,1,6,-
BRDA:521,2,8,-
BRDA:521,2,9,-
BRDA:523,0,0,-
BRDA:523,0,1,-
BRDA:523,1,3,-
BRDA:523,1,4,-
BRDA:524,0,1,-
BRDA:524,0,2,-
BRDA:528,0,0,-
BRDA:528,0,1,-
BRDA:529,0,0,-
BRDA:529,0,1,-
BRDA:532,0,0,-
BRDA:532,0,1,-
BRDA:532,1,3,-
BRDA:532,1,4,-
BRDA:532,2,6,-
BRDA:532,2,7,-
BRDA:535,0,0,-
BRDA:535,0,1,-
BRDA:559,0,1,-
BRDA:559,0,2,-
BRDA:561,2,1,-
BRDA:561,2,2,-
BRDA:563,0,1,-
BRDA:563,0,2,-
BRDA:563,1,5,-
BRDA:563,1,6,-
BRDA:563,4,7,-
BRDA:563,4,8,-
BRDA:573,0,0,-
BRDA:573,0,1,-
BRDA:577,0,0,-
BRDA:577,0,1,-
BRDA:580,9999,0,-
BRDA:580,9999,1,-
BRDA:582,0,0,-
BRDA:582,0,1,-
BRDA:582,1,3,-
BRDA:582,1,4,-
BRDA:583,0,0,-
BRDA:583,0,1,-
BRDA:583,1,3,-
BRDA:583,1,4,-
BRDA:583,2,6,-
BRDA:583,2,7,-
BRDA:586,9999,0,-
BRDA:586,9999,1,-
BRDA:588,0,0,-
BRDA:588,0,1,-
BRDA:588,1,3,-
BRDA:588,1,4,-
BRDA:589,0,0,-
BRDA:589,0,1,-
BRDA:591,1,0,-
BRDA:591,1,1,-
BRDA:591,2,4,-
BRDA:591,2,5,-
BRDA:593,0,0,-
BRDA:593,0,1,-
BRDA:595,0,0,-
BRDA:595,0,1,-
BRDA:595,1,4,-
BRDA:595,1,5,-
BRDA:595,2,8,-
BRDA:595,2,9,-
BRDA:598,9999,1,-
BRDA:598,9999,2,-
BRDA:602,9999,2,-
BRDA:602,9999,3,-
BRDA:602,2,8,-
BRDA:602,2,9,-
BRDA:602,3,12,-
BRDA:602,3,13,-
BRDA:604,0,2,-
BRDA:604,0,3,-
BRDA:604,1,6,-
BRDA:604,1,7,-
BRDA:607,0,2,-
BRDA:607,0,3,-
BRDA:610,0,2,-
BRDA:610,0,3,-
BRDA:610,3,8,-
BRDA:610,3,9,-
BRDA:610,4,12,-
BRDA:610,4,13,-
BRDA:612,0,0,-
BRDA:612,0,1,-
BRDA:612,1,4,-
BRDA:612,1,5,-
BRDA:612,2,8,-
BRDA:612,2,9,-
BRDA:614,0,1,-
BRDA:614,0,2,-
BRDA:616,0,1,-
BRDA:616,0,2,-
BRDA:616,1,5,-
BRDA:616,1,6,-
BRDA:618,0,1,-
BRDA:618,0,2,-
BRDA:618,1,5,-
BRDA:618,1,6,-
BRDA:618,2,8,-
BRDA:618,2,9,-
BRDA:620,0,1,-
BRDA:620,0,2,-
BRDA:620,1,5,-
BRDA:620,1,6,-
BRDA:620,2,8,-
BRDA:620,2,9,-
BRDA:622,0,0,-
BRDA:622,0,1,-
BRDA:622,1,3,-
BRDA:622,1,4,-
BRDA:623,0,1,-
BRDA:623,0,2,-
BRDA:626,0,0,-
BRDA:626,0,1,-
BRDA:626,1,3,-
BRDA:626,1,4,-
BRDA:627,0,0,-
BRDA:627,0,1,-
BRDA:627,1,3,-
BRDA:627,1,4,-
BRDA:627,2,6,-
BRDA:627,2,7,-
BRDA:627,3,9,-
BRDA:627,3,10,-
BRDA:629,0,0,-
BRDA:629,0,1,-
BRDA:629,1,3,-
BRDA:629,1,4,-
BRDA:630,2,1,-
BRDA:630,2,2,-
BRDA:631,0,1,-
BRDA:631,0,2,-
BRDA:637,0,2,-
BRDA:637,0,3,-
BRDA:639,0,1,-
BRDA:639,0,2,-
BRDA:639,1,7,-
BRDA:639,1,8,-
BRDA:639,4,9,-
BRDA:639,4,10,-
BRDA:643,9999,0,-
BRDA:643,9999,1,-
BRDA:647,9999,3,-
BRDA:647,9999,4,-
BRDA:648,0,2,-
BRDA:648,0,3,-
BRDA:650,0,2,-
BRDA:650,0,3,-
BRDA:652,0,0,-
BRDA:652,0,1,-
BRDA:662,0,0,-
BRDA:662,0,1,-
BRDA:662,1,3,-
BRDA:662,1,4,-
BRDA:663,0,0,-
BRDA:663,0,1,-
BRDA:672,9999,0,-
BRDA:672,9999,1,-
BRDA:680,9999,0,-
BRDA:680,9999,1,-
BRDA:680,2,4,-
BRDA:680,2,5,-
BRDA:680,3,8,-
BRDA:680,3,9,-
BRDA:682,0,1,-
BRDA:682,0,2,-
BRDA:684,0,0,-
BRDA:684,0,1,-
BRDA:685,0,1,-
BRDA:685,0,2,-
BRDA:687,9999,2,-
BRDA:687,9999,3,-
BRDA:693,9999,2,-
BRDA:693,9999,3,-
BRDA:698,0,0,-
BRDA:698,0,1,-
BRDA:704,9999,0,-
BRDA:704,9999,1,-
BRDA:704,2,4,-
BRDA:704,2,5,-
BRDA:704,3,8,-
BRDA:704,3,9,-
BRDA:705,0,1,-
BRDA:705,0,2,-
BRDA:717,0,1,2
BRDA:717,0,2,0
BRDA:717,1,4,2
BRDA:717,1,5,0
BRDA:742,9999,0,0
BRDA:742,9999,1,752
BRDA:755,9999,1,752
BRDA:755,9999,2,0
BRDA:755,0,7,752
BRDA:755,0,8,0
BRDA:755,3,9,752
BRDA:755,3,10,0
BRDA:764,9999,0,-
BRDA:764,9999,1,-
BRDA:768,9999,1,-
BRDA:768,9999,2,-
BRDA:794,9999,0,220
BRDA:794,9999,1,0
BRDA:802,9999,1,220
BRDA:802,9999,2,0
BRDA:805,9999,3,216
BRDA:805,9999,4,4
BRDA:808,9999,0,216
BRDA:808,9999,1,0
BRDA:814,0,0,0
BRDA:814,0,1,4
BRDA:815,0,0,-
BRDA:815,0,1,-
BRDA:977,9999,0,752
BRDA:977,9999,1,0
BRDA:987,9999,1,0
BRDA:987,9999,2,752
BRDA:990,0,3,752
BRDA:990,0,4,0
BRDA:992,9999,0,0
BRDA:992,9999,1,752
BRDA:996,0,0,-
BRDA:996,0,1,-
BRDA:998,9999,0,-
BRDA:998,9999,1,-
BRDA:1010,0,0,752
BRDA:1010,0,1,0
BRDA:1012,9999,0,0
BRDA:1012,9999,1,752
BRDA:1012,0,2,-
BRDA:1012,0,3,-
BRDA:1021,9999,3,346
BRDA:1021,9999,4,406
BRDA:1032,9999,0,346
BRDA:1032,9999,1,0
BRDA:1033,0,0,346
BRDA:1033,0,1,0
BRDA:1035,0,0,346
BRDA:1035,0,1,0
BRDA:1037,9999,1,346
BRDA:1037,9999,2,0
BRDA:1038,0,0,346
BRDA:1038,0,1,0
BRDA:1039,0,0,346
BRDA:1039,0,1,0
BRDA:1042,0,0,-
BRDA:1042,0,1,-
BRDA:1043,0,0,-
BRDA:1043,0,1,-
BRDA:1047,9999,0,346
BRDA:1047,9999,1,0
BRDA:1047,0,3,346
BRDA:1047,0,4,0
BRDA:1047,1,6,346
BRDA:1047,1,7,0
BRDA:1047,2,9,346
BRDA:1047,2,10,0
BRDA:1047,3,12,346
BRDA:1047,3,13,0
BRDA:1052,0,0,346
BRDA:1052,0,1,0
BRDA:1065,9999,0,406
BRDA:1065,9999,1,0
BRDA:1073,9999,0,406
BRDA:1073,9999,1,0
BRDA:1077,0,0,406
BRDA:1077,0,1,0
BRDA:1077,1,3,0
BRDA:1077,1,4,406
BRDA:1079,0,0,-
BRDA:1079,0,1,-
BRDA:1080,0,0,-
BRDA:1080,0,1,-
BRDA:1080,1,3,-
BRDA:1080,1,4,-
BRDA:1080,2,6,-
BRDA:1080,2,7,-
BRDA:1088,0,0,-
BRDA:1088,0,1,-
BRDA:1089,0,0,-
BRDA:1089,0,1,-
BRDA:1089,1,3,-
BRDA:1089,1,4,-
BRDA:1089,2,6,-
BRDA:1089,2,7,-
BRDA:1092,0,0,406
BRDA:1092,0,1,0
BRDA:1092,1,3,406
BRDA:1092,1,4,0
BRDA:1094,0,0,406
BRDA:1094,0,1,0
BRDA:1094,1,2,406
BRDA:1094,1,3,0
BRDA:1094,2,5,406
BRDA:1094,2,6,0
BRDA:1094,5,7,406
BRDA:1094,5,8,0
BRDA:1095,0,0,406
BRDA:1095,0,1,0
BRDA:1096,0,1,406
BRDA:1096,0,2,0
BRDA:1104,0,0,-
BRDA:1104,0,1,-
BRDA:1104,1,3,-
BRDA:1104,1,4,-
BRDA:1107,0,0,-
BRDA:1107,0,1,-
BRDA:1108,0,0,-
BRDA:1108,0,1,-
BRDA:1110,0,0,-
BRDA:1110,0,1,-
BRDA:1113,0,0,-
BRDA:1113,0,1,-
BRDA:1114,0,0,-
BRDA:1114,0,1,-
BRDA:1117,0,0,-
BRDA:1117,0,1,-
BRDA:1117,1,3,-
BRDA:1117,1,4,-
BRDA:1118,0,0,-
BRDA:1118,0,1,-
BRDA:1118,1,3,-
BRDA:1118,1,4,-
BRDA:1118,2,6,-
BRDA:1118,2,7,-
BRDA:1118,3,9,-
BRDA:1118,3,10,-
BRDA:1120,0,0,-
BRDA:1120,0,1,-
BRDA:1120,1,3,-
BRDA:1120,1,4,-
BRDA:1122,0,0,-
BRDA:1122,0,1,-
BRDA:1122,1,3,-
BRDA:1122,1,4,-
BRDA:1122,2,6,-
BRDA:1122,2,7,-
BRDA:1127,9999,0,-
BRDA:1127,9999,1,-
BRDA:1128,0,0,-
BRDA:1128,0,1,-
BRDA:1129,0,0,-
BRDA:1129,0,1,-
BRDA:1132,0,1,-
BRDA:1132,0,2,-
BRDA:1138,0,0,-
BRDA:1138,0,1,-
BRDA:1159,9999,0,0
BRDA:1159,9999,1,212
BRDA:1170,9999,0,0
BRDA:1170,9999,1,212
BRDA:1172,9999,1,-
BRDA:1172,9999,2,-
BRDA:1177,0,0,212
BRDA:1177,0,1,0
BRDA:1179,9999,1,212
BRDA:1179,9999,2,0
BRDA:1179,0,6,212
BRDA:1179,0,7,0
BRDA:1179,3,8,212
BRDA:1179,3,9,0
BRDA:1180,0,0,212
BRDA:1180,0,1,0
BRDA:1186,0,0,212
BRDA:1186,0,1,0
BRDA:1196,9999,0,0
BRDA:1196,9999,1,212
BRDA:1196,0,2,-
BRDA:1196,0,3,-
BRDA:1203,9999,2,212
BRDA:1203,9999,3,0
BRDA:1210,9999,0,0
BRDA:1210,9999,1,212
BRDA:1212,9999,2,-
BRDA:1212,9999,3,-
BRDA:1529,0,2,0
BRDA:1529,0,3,4
BRDA:1533,9999,0,0
BRDA:1533,9999,1,4
BRDA:1544,9999,0,4
BRDA:1544,9999,1,0
BRDA:1544,0,3,4
BRDA:1544,0,4,0
BRDA:1544,1,6,4
BRDA:1544,1,7,0
BRDA:1567,9999,0,4
BRDA:1567,9999,1,0
BRDA:1567,0,4,4
BRDA:1567,0,5,0
BRDA:1567,1,7,4
BRDA:1567,1,8,0
BRDA:1569,1,1,4
BRDA:1569,1,2,4
BRDA:1572,2,1,4
BRDA:1572,2,2,4
BRDA:1578,9999,0,4
BRDA:1578,9999,1,0
BRDA:1579,0,3,4
BRDA:1579,0,4,0
BRDA:1584,9999,0,0
BRDA:1584,9999,1,4
BRDA:1585,1,1,-
BRDA:1585,1,2,-
BRDA:1588,2,0,-
BRDA:1588,2,1,-
BRDA:1589,0,0,-
BRDA:1589,0,1,-
BRDA:1591,0,0,-
BRDA:1591,0,1,-
BRDA:1591,1,3,-
BRDA:1591,1,4,-
BRDA:1591,2,6,-
BRDA:1591,2,7,-
BRDA:1621,9999,0,4
BRDA:1621,9999,1,0
BRDA:1621,0,2,0
BRDA:1621,0,3,4
BRDA:1631,0,0,0
BRDA:1631,0,1,4
BRDA:1635,0,0,4
BRDA:1635,0,1,0
BRDA:1637,9999,0,4
BRDA:1637,9999,1,0
BRDA:1641,0,0,-
BRDA:1641,0,1,-
BRDA:1657,9999,0,0
BRDA:1657,9999,1,4
BRDA:1668,1,1,216
BRDA:1668,1,2,4
BRDA:1678,0,0,216
BRDA:1678,0,1,216
BRDA:1682,9999,0,216
BRDA:1682,9999,1,216
BRDA:1684,9999,1,216
BRDA:1684,9999,2,0
BRDA:1688,0,0,-
BRDA:1688,0,1,-
BRDA:1704,0,0,0
BRDA:1704,0,1,216
BRDA:1725,9999,0,0
BRDA:1725,9999,1,216
BRDA:1725,0,2,-
BRDA:1725,0,3,-
BRF:746
BRH:133
DA:22,1556
DA:38,216
DA:39,216
DA:40,216
DA:41,216
DA:49,2422
DA:60,346
DA:61,346
DA:62,346
DA:66,406
DA:72,406
DA:73,2004
DA:74,1598
DA:75,406
DA:77,1192
DA:78,683
DA:79,178
DA:80,178
DA:81,0
DA:83,178
DA:85,0
DA:86,0
DA:87,0
DA:91,0
DA:96,406
DA:97,228
DA:98,228
DA:99,228
DA:101,825
DA:102,647
DA:103,178
DA:106,178
DA:107,178
DA:108,406
DA:112,406
DA:115,406
DA:116,406
DA:117,406
DA:118,0
DA:119,0
DA:120,0
DA:121,0
DA:124,0
DA:127,406
DA:128,406
DA:129,0
DA:130,0
DA:131,0
DA:132,0
DA:133,0
DA:134,0
DA:137,0
DA:144,0
DA:146,0
DA:150,0
DA:153,0
DA:154,0
DA:155,0
DA:156,0
DA:158,0
DA:159,0
DA:160,0
DA:165,0
DA:166,0
DA:167,0
DA:168,0
DA:169,0
DA:170,0
DA:172,0
DA:173,0
DA:174,0
DA:182,0
DA:183,0
DA:185,0
DA:189,0
DA:195,0
DA:196,0
DA:197,0
DA:198,0
DA:199,0
DA:200,0
DA:201,0
DA:202,0
DA:205,0
DA:208,0
DA:209,0
DA:210,0
DA:211,0
DA:212,0
DA:246,2
DA:307,4
DA:310,4
DA:312,4
DA:314,0
DA:316,0
DA:317,0
DA:318,0
DA:324,4
DA:328,4
DA:330,4
DA:332,4
DA:334,0
DA:336,4
DA:337,2
DA:341,4
DA:346,2
DA:347,0
DA:349,2
DA:351,2
DA:353,2
DA:355,2
DA:357,2
DA:358,22
DA:359,20
DA:361,0
DA:362,0
DA:367,2
DA:369,2
DA:371,2
DA:373,2
DA:374,2
DA:379,2
DA:380,0
DA:383,2
DA:385,0
DA:387,2
DA:389,2
DA:396,4
DA:398,0
DA:399,0
DA:430,4
DA:442,0
DA:444,0
DA:446,0
DA:448,0
DA:449,0
DA:450,0
DA:452,0
DA:453,0
DA:455,0
DA:456,0
DA:459,0
DA:460,0
DA:461,0
DA:462,0
DA:466,0
DA:467,0
DA:469,0
DA:471,0
DA:473,0
DA:477,0
DA:479,0
DA:483,0
DA:485,0
DA:487,0
DA:491,0
DA:493,0
DA:499,0
DA:500,0
DA:501,0
DA:502,0
DA:504,0
DA:505,0
DA:506,0
DA:507,0
DA:508,0
DA:510,0
DA:511,0
DA:517,0
DA:519,0
DA:520,0
DA:521,0
DA:523,0
DA:524,0
DA:528,0
DA:529,0
DA:532,0
DA:535,0
DA:536,0
DA:537,0
DA:538,0
DA:541,0
DA:554,0
DA:557,0
DA:559,0
DA:561,0
DA:563,0
DA:564,0
DA:565,0
DA:571,0
DA:573,0
DA:574,0
DA:577,0
DA:579,0
DA:580,0
DA:582,0
DA:583,0
DA:585,0
DA:586,0
DA:588,0
DA:589,0
DA:591,0
DA:593,0
DA:595,0
DA:597,0
DA:598,0
DA:600,0
DA:602,0
DA:604,0
DA:607,0
DA:610,0
DA:612,0
DA:614,0
DA:616,0
DA:618,0
DA:620,0
DA:622,0
DA:623,0
DA:626,0
DA:627,0
DA:629,0
DA:630,0
DA:631,0
DA:637,0
DA:639,0
DA:641,0
DA:642,0
DA:643,0
DA:644,0
DA:646,0
DA:647,0
DA:648,0
DA:650,0
DA:652,0
DA:653,0
DA:654,0
DA:655,0
DA:662,0
DA:663,0
DA:666,0
DA:670,0
DA:671,0
DA:672,0
DA:673,0
DA:676,0
DA:677,0
DA:680,0
DA:682,0
DA:684,0
DA:685,0
DA:686,0
DA:687,0
DA:692,0
DA:693,0
DA:698,0
DA:699,0
DA:701,0
DA:702,0
DA:704,0
DA:705,0
DA:706,0
DA:709,0
DA:717,2
DA:719,2
DA:720,2
DA:721,2
DA:722,2
DA:723,2
DA:724,2
DA:725,2
DA:726,2
DA:727,2
DA:728,2
DA:729,2
DA:731,2
DA:737,752
DA:739,752
DA:741,752
DA:742,752
DA:744,0
DA:746,0
DA:750,752
DA:753,752
DA:755,752
DA:757,752
DA:759,752
DA:761,0
DA:764,0
DA:766,0
DA:768,0
DA:770,0
DA:772,0
DA:776,0
DA:778,0
DA:782,752
DA:790,220
DA:792,220
DA:794,220
DA:796,220
DA:797,220
DA:799,220
DA:802,220
DA:803,220
DA:805,220
DA:807,216
DA:808,216
DA:809,216
DA:810,216
DA:811,216
DA:814,4
DA:815,0
DA:816,0
DA:817,0
DA:818,0
DA:822,4
DA:823,4
DA:824,4
DA:828,220
DA:831,0
DA:834,220
DA:974,752
DA:976,752
DA:977,752
DA:978,752
DA:979,752
DA:981,752
DA:983,752
DA:985,752
DA:987,752
DA:988,0
DA:990,752
DA:991,752
DA:992,752
DA:993,0
DA:996,0
DA:997,0
DA:998,0
DA:999,0
DA:1002,0
DA:1004,0
DA:1007,0
DA:1010,752
DA:1011,752
DA:1012,752
DA:1013,0
DA:1014,0
DA:1015,0
DA:1017,752
DA:1020,752
DA:1021,752
DA:1026,346
DA:1027,692
DA:1031,346
DA:1032,346
DA:1033,346
DA:1035,346
DA:1036,346
DA:1037,346
DA:1038,346
DA:1039,346
DA:1042,0
DA:1043,0
DA:1045,346
DA:1047,346
DA:1050,346
DA:1052,346
DA:1053,346
DA:1055,346
DA:1056,346
DA:1061,406
DA:1062,406
DA:1063,406
DA:1065,406
DA:1066,406
DA:1070,812
DA:1072,406
DA:1073,406
DA:1077,406
DA:1079,0
DA:1080,0
DA:1084,406
DA:1088,0
DA:1089,0
DA:1092,812
DA:1094,406
DA:1095,406
DA:1096,406
DA:1097,406
DA:1099,406
DA:1100,406
DA:1101,406
DA:1104,0
DA:1107,0
DA:1108,0
DA:1110,0
DA:1113,0
DA:1114,0
DA:1117,0
DA:1118,0
DA:1120,0
DA:1122,0
DA:1124,0
DA:1127,0
DA:1128,0
DA:1129,0
DA:1132,0
DA:1136,0
DA:1138,0
DA:1139,0
DA:1141,0
DA:1142,0
DA:1144,0
DA:1147,0
DA:1149,752
DA:1157,212
DA:1158,212
DA:1159,212
DA:1160,0
DA:1161,0
DA:1163,212
DA:1164,212
DA:1166,212
DA:1168,212
DA:1170,212
DA:1171,0
DA:1172,0
DA:1173,0
DA:1175,0
DA:1177,212
DA:1178,212
DA:1179,212
DA:1180,212
DA:1181,212
DA:1186,212
DA:1189,212
DA:1190,212
DA:1193,212
DA:1195,212
DA:1196,212
DA:1197,0
DA:1198,0
DA:1199,0
DA:1201,212
DA:1203,212
DA:1204,212
DA:1205,212
DA:1206,212
DA:1207,212
DA:1208,212
DA:1209,212
DA:1210,212
DA:1211,0
DA:1212,0
DA:1213,0
DA:1214,0
DA:1216,212
DA:1217,212
DA:1218,212
DA:1219,212
DA:1221,0
DA:1222,212
DA:1528,4
DA:1529,4
DA:1530,0
DA:1532,4
DA:1533,4
DA:1534,0
DA:1535,0
DA:1537,4
DA:1538,4
DA:1540,4
DA:1541,4
DA:1543,8
DA:1544,4
DA:1547,4
DA:1548,4
DA:1549,4
DA:1551,4
DA:1552,4
DA:1553,4
DA:1555,4
DA:1556,4
DA:1557,4
DA:1559,4
DA:1562,4
DA:1563,4
DA:1567,4
DA:1569,8
DA:1570,4
DA:1572,8
DA:1574,4
DA:1575,4
DA:1576,4
DA:1578,4
DA:1579,4
DA:1582,4
DA:1584,4
DA:1585,0
DA:1586,0
DA:1588,0
DA:1589,0
DA:1591,0
DA:1593,0
DA:1594,0
DA:1596,0
DA:1597,0
DA:1598,0
DA:1599,0
DA:1602,4
DA:1603,4
DA:1606,4
DA:1619,4
DA:1620,4
DA:1621,4
DA:1622,0
DA:1623,0
DA:1625,4
DA:1627,4
DA:1628,4
DA:1631,4
DA:1633,4
DA:1635,4
DA:1636,4
DA:1637,4
DA:1638,4
DA:1641,0
DA:1642,0
DA:1643,0
DA:1646,4
DA:1651,4
DA:1654,4
DA:1657,4
DA:1658,0
DA:1659,0
DA:1661,0
DA:1662,0
DA:1663,0
DA:1665,0
DA:1668,220
DA:1670,216
DA:1672,216
DA:1674,216
DA:1675,216
DA:1678,432
DA:1680,432
DA:1682,432
DA:1683,216
DA:1684,216
DA:1685,216
DA:1688,0
DA:1689,0
DA:1690,0
DA:1693,216
DA:1704,216
DA:1706,0
DA:1707,0
DA:1708,0
DA:1710,0
DA:1711,0
DA:1712,0
DA:1714,0
DA:1717,216
DA:1719,216
DA:1721,216
DA:1722,216
DA:1723,216
DA:1725,216
DA:1726,0
DA:1731,4
DA:1733,4
DA:1734,4
DA:1735,4
DA:1736,4
LF:573
LH:271
end_of_record
SF:/usr/include/c++/4.5/new
FN:103,_ZnwjPv
FN:107,_ZdlPvS_
FNDA:0,_ZnwjPv
FNDA:0,_ZdlPvS_
FNF:2
FNH:0
BRDA:103,9999,0,-
BRDA:107,9999,0,-
BRF:2
BRH:0
DA:103,0
DA:107,0
LF:2
LH:0
end_of_record
SF:/usr/include/c++/4.5/ext/new_allocator.h
FN:66,_ZN9__gnu_cxx13new_allocatorIPvEC2Ev
FN:66,_ZN9__gnu_cxx13new_allocatorIPFPvS1_EEC2Ev
FN:66,_ZN9__gnu_cxx13new_allocatorISt13_Rb_tree_nodeIPvEEC2Ev
FN:66,_ZN9__gnu_cxx13new_allocatorISt13_Rb_tree_nodeIiEEC2Ev
FN:66,_ZN9__gnu_cxx13new_allocatorISt13_Rb_tree_nodeISt4pairIKPv16_data_access_logEEEC2Ev
FN:66,_ZN9__gnu_cxx13new_allocatorI17_loop_spec_threadEC2Ev
FN:66,_ZN9__gnu_cxx13new_allocatorISt13_Rb_tree_nodeISt4pairIKmiEEEC2Ev
FN:66,_ZN9__gnu_cxx13new_allocatorISt4pairIKPv16_data_access_logEEC2Ev
FN:66,_ZN9__gnu_cxx13new_allocatorISt4pairIKmiEEC2Ev
FN:66,_ZN9__gnu_cxx13new_allocatorIiEC2Ev
FN:68,_ZN9__gnu_cxx13new_allocatorIPvEC2ERKS2_
FN:68,_ZN9__gnu_cxx13new_allocatorISt13_Rb_tree_nodeIiEEC2ERKS3_
FN:68,_ZN9__gnu_cxx13new_allocatorIiEC2ERKS1_
FN:68,_ZN9__gnu_cxx13new_allocatorISt13_Rb_tree_nodeIPvEEC2ERKS4_
FN:68,_ZN9__gnu_cxx13new_allocatorIPFPvS1_EEC2ERKS4_
FN:73,_ZN9__gnu_cxx13new_allocatorISt13_Rb_tree_nodeIiEED2Ev
FN:73,_ZN9__gnu_cxx13new_allocatorISt13_Rb_tree_nodeISt4pairIKPv16_data_access_logEEED2Ev
FN:73,_ZN9__gnu_cxx13new_allocatorISt13_Rb_tree_nodeIPvEED2Ev
FN:73,_ZN9__gnu_cxx13new_allocatorIiED2Ev
FN:73,_ZN9__gnu_cxx13new_allocatorISt13_Rb_tree_nodeISt4pairIKmiEEED2Ev
FN:73,_ZN9__gnu_cxx13new_allocatorISt4pairIKPv16_data_access_logEED2Ev
FN:73,_ZN9__gnu_cxx13new_allocatorI17_loop_spec_threadED2Ev
FN:73,_ZN9__gnu_cxx13new_allocatorISt4pairIKmiEED2Ev
FN:73,_ZN9__gnu_cxx13new_allocatorIPFPvS1_EED2Ev
FN:73,_ZN9__gnu_cxx13new_allocatorIPvED2Ev
FN:84,_ZN9__gnu_cxx13new_allocatorISt13_Rb_tree_nodeISt4pairIKmiEEE8allocateEjPKv
FN:84,_ZN9__gnu_cxx13new_allocatorIiE8allocateEjPKv
FN:84,_ZN9__gnu_cxx13new_allocatorISt13_Rb_tree_nodeISt4pairIKPv16_data_access_logEEE8allocateEjPKv
FN:84,_ZN9__gnu_cxx13new_allocatorISt13_Rb_tree_nodeIiEE8allocateEjPKv
FN:84,_ZN9__gnu_cxx13new_allocatorI17_loop_spec_threadE8allocateEjPKv
FN:84,_ZN9__gnu_cxx13new_allocatorISt13_Rb_tree_nodeIPvEE8allocateEjPKv
FN:84,_ZN9__gnu_cxx13new_allocatorIPvE8allocateEjPKv
FN:84,_ZN9__gnu_cxx13new_allocatorIPFPvS1_EE8allocateEjPKv
FN:94,_ZN9__gnu_cxx13new_allocatorI17_loop_spec_threadE10deallocateEPS1_j
FN:94,_ZN9__gnu_cxx13new_allocatorISt13_Rb_tree_nodeISt4pairIKmiEEE10deallocateEPS5_j
FN:94,_ZN9__gnu_cxx13new_allocatorISt13_Rb_tree_nodeISt4pairIKPv16_data_access_logEEE10deallocateEPS7_j
FN:94,_ZN9__gnu_cxx13new_allocatorIPFPvS1_EE10deallocateEPS3_j
FN:94,_ZN9__gnu_cxx13new_allocatorISt13_Rb_tree_nodeIPvEE10deallocateEPS3_j
FN:94,_ZN9__gnu_cxx13new_allocatorIPvE10deallocateEPS1_j
FN:94,_ZN9__gnu_cxx13new_allocatorIiE10deallocateEPij
FN:94,_ZN9__gnu_cxx13new_allocatorISt13_Rb_tree_nodeIiEE10deallocateEPS2_j
FN:98,_ZNK9__gnu_cxx13new_allocatorI17_loop_spec_threadE8max_sizeEv
FN:98,_ZNK9__gnu_cxx13new_allocatorISt13_Rb_tree_nodeISt4pairIKmiEEE8max_sizeEv
FN:98,_ZNK9__gnu_cxx13new_allocatorISt13_Rb_tree_nodeIPvEE8max_sizeEv
FN:98,_ZNK9__gnu_cxx13new_allocatorIPFPvS1_EE8max_sizeEv
FN:98,_ZNK9__gnu_cxx13new_allocatorISt13_Rb_tree_nodeIiEE8max_sizeEv
FN:98,_ZNK9__gnu_cxx13new_allocatorISt13_Rb_tree_nodeISt4pairIKPv16_data_access_logEEE8max_sizeEv
FN:98,_ZNK9__gnu_cxx13new_allocatorIPvE8max_sizeEv
FN:98,_ZNK9__gnu_cxx13new_allocatorIiE8max_sizeEv
FN:104,_ZN9__gnu_cxx13new_allocatorIPvE9constructEPS1_RKS1_
FN:104,_ZN9__gnu_cxx13new_allocatorISt4pairIKPv16_data_access_logEE9constructEPS5_RKS5_
FN:104,_ZN9__gnu_cxx13new_allocatorISt4pairIKmiEE9constructEPS3_RKS3_
FN:104,_ZN9__gnu_cxx13new_allocatorIPFPvS1_EE9constructEPS3_RKS3_
FN:104,_ZN9__gnu_cxx13new_allocatorIiE9constructEPiRKi
FN:115,_ZN9__gnu_cxx13new_allocatorISt4pairIKPv16_data_access_logEE7destroyEPS5_
FN:115,_ZN9__gnu_cxx13new_allocatorIPFPvS1_EE7destroyEPS3_
FN:115,_ZN9__gnu_cxx13new_allocatorIPvE7destroyEPS1_
FN:115,_ZN9__gnu_cxx13new_allocatorISt4pairIKmiEE7destroyEPS3_
FN:115,_ZN9__gnu_cxx13new_allocatorIiE7destroyEPi
FNDA:0,_ZN9__gnu_cxx13new_allocatorIiEC2Ev
FNDA:0,_ZN9__gnu_cxx13new_allocatorISt13_Rb_tree_nodeIPvEEC2Ev
FNDA:0,_ZN9__gnu_cxx13new_allocatorISt13_Rb_tree_nodeISt4pairIKmiEEEC2Ev
FNDA:0,_ZN9__gnu_cxx13new_allocatorISt13_Rb_tree_nodeIiEEC2Ev
FNDA:0,_ZN9__gnu_cxx13new_allocatorIPvEC2Ev
FNDA:0,_ZN9__gnu_cxx13new_allocatorI17_loop_spec_threadEC2Ev
FNDA:0,_ZN9__gnu_cxx13new_allocatorISt13_Rb_tree_nodeISt4pairIKPv16_data_access_logEEEC2Ev
FNDA:0,_ZN9__gnu_cxx13new_allocatorIPFPvS1_EEC2Ev
FNDA:0,_ZN9__gnu_cxx13new_allocatorISt4pairIKmiEEC2Ev
FNDA:0,_ZN9__gnu_cxx13new_allocatorISt4pairIKPv16_data_access_logEEC2Ev
FNDA:0,_ZN9__gnu_cxx13new_allocatorIiEC2ERKS1_
FNDA:0,_ZN9__gnu_cxx13new_allocatorISt13_Rb_tree_nodeIPvEEC2ERKS4_
FNDA:0,_ZN9__gnu_cxx13new_allocatorIPFPvS1_EEC2ERKS4_
FNDA:0,_ZN9__gnu_cxx13new_allocatorIPvEC2ERKS2_
FNDA:0,_ZN9__gnu_cxx13new_allocatorISt13_Rb_tree_nodeIiEEC2ERKS3_
FNDA:0,_ZN9__gnu_cxx13new_allocatorISt13_Rb_tree_nodeIPvEED2Ev
FNDA:0,_ZN9__gnu_cxx13new_allocatorISt13_Rb_tree_nodeISt4pairIKmiEEED2Ev
FNDA:0,_ZN9__gnu_cxx13new_allocatorISt13_Rb_tree_nodeIiEED2Ev
FNDA:0,_ZN9__gnu_cxx13new_allocatorISt13_Rb_tree_nodeISt4pairIKPv16_data_access_logEEED2Ev
FNDA:0,_ZN9__gnu_cxx13new_allocatorIiED2Ev
FNDA:0,_ZN9__gnu_cxx13new_allocatorIPvED2Ev
FNDA:0,_ZN9__gnu_cxx13new_allocatorI17_loop_spec_threadED2Ev
FNDA:0,_ZN9__gnu_cxx13new_allocatorIPFPvS1_EED2Ev
FNDA:0,_ZN9__gnu_cxx13new_allocatorISt4pairIKmiEED2Ev
FNDA:0,_ZN9__gnu_cxx13new_allocatorISt4pairIKPv16_data_access_logEED2Ev
FNDA:0,_ZN9__gnu_cxx13new_allocatorIiE8allocateEjPKv
FNDA:0,_ZN9__gnu_cxx13new_allocatorIPFPvS1_EE8allocateEjPKv
FNDA:0,_ZN9__gnu_cxx13new_allocatorIPvE8allocateEjPKv
FNDA:0,_ZN9__gnu_cxx13new_allocatorI17_loop_spec_threadE8allocateEjPKv
FNDA:0,_ZN9__gnu_cxx13new_allocatorISt13_Rb_tree_nodeIPvEE8allocateEjPKv
FNDA:0,_ZN9__gnu_cxx13new_allocatorISt13_Rb_tree_nodeIiEE8allocateEjPKv
FNDA:0,_ZN9__gnu_cxx13new_allocatorISt13_Rb_tree_nodeISt4pairIKmiEEE8allocateEjPKv
FNDA:0,_ZN9__gnu_cxx13new_allocatorISt13_Rb_tree_nodeISt4pairIKPv16_data_access_logEEE8allocateEjPKv
FNDA:0,_ZN9__gnu_cxx13new_allocatorIiE10deallocateEPij
FNDA:0,_ZN9__gnu_cxx13new_allocatorIPvE10deallocateEPS1_j
FNDA:0,_ZN9__gnu_cxx13new_allocatorI17_loop_spec_threadE10deallocateEPS1_j
FNDA:0,_ZN9__gnu_cxx13new_allocatorIPFPvS1_EE10deallocateEPS3_j
FNDA:0,_ZN9__gnu_cxx13new_allocatorISt13_Rb_tree_nodeIPvEE10deallocateEPS3_j
FNDA:0,_ZN9__gnu_cxx13new_allocatorISt13_Rb_tree_nodeISt4pairIKmiEEE10deallocateEPS5_j
FNDA:0,_ZN9__gnu_cxx13new_allocatorISt13_Rb_tree_nodeIiEE10deallocateEPS2_j
FNDA:0,_ZN9__gnu_cxx13new_allocatorISt13_Rb_tree_nodeISt4pairIKPv16_data_access_logEEE10deallocateEPS7_j
FNDA:0,_ZNK9__gnu_cxx13new_allocatorIiE8max_sizeEv
FNDA:0,_ZNK9__gnu_cxx13new_allocatorIPFPvS1_EE8max_sizeEv
FNDA:0,_ZNK9__gnu_cxx13new_allocatorIPvE8max_sizeEv
FNDA:0,_ZNK9__gnu_cxx13new_allocatorI17_loop_spec_threadE8max_sizeEv
FNDA:0,_ZNK9__gnu_cxx13new_allocatorISt13_Rb_tree_nodeIPvEE8max_sizeEv
FNDA:0,_ZNK9__gnu_cxx13new_allocatorISt13_Rb_tree_nodeIiEE8max_sizeEv
FNDA:0,_ZNK9__gnu_cxx13new_allocatorISt13_Rb_tree_nodeISt4pairIKmiEEE8max_sizeEv
FNDA:0,_ZNK9__gnu_cxx13new_allocatorISt13_Rb_tree_nodeISt4pairIKPv16_data_access_logEEE8max_sizeEv
FNDA:0,_ZN9__gnu_cxx13new_allocatorIiE9constructEPiRKi
FNDA:0,_ZN9__gnu_cxx13new_allocatorIPFPvS1_EE9constructEPS3_RKS3_
FNDA:0,_ZN9__gnu_cxx13new_allocatorIPvE9constructEPS1_RKS1_
FNDA:0,_ZN9__gnu_cxx13new_allocatorISt4pairIKmiEE9constructEPS3_RKS3_
FNDA:0,_ZN9__gnu_cxx13new_allocatorISt4pairIKPv16_data_access_logEE9constructEPS5_RKS5_
FNDA:0,_ZN9__gnu_cxx13new_allocatorIiE7destroyEPi
FNDA:0,_ZN9__gnu_cxx13new_allocatorIPvE7destroyEPS1_
FNDA:0,_ZN9__gnu_cxx13new_allocatorIPFPvS1_EE7destroyEPS3_
FNDA:0,_ZN9__gnu_cxx13new_allocatorISt4pairIKmiEE7destroyEPS3_
FNDA:0,_ZN9__gnu_cxx13new_allocatorISt4pairIKPv16_data_access_logEE7destroyEPS5_
FNF:59
FNH:0
BRDA:66,9999,0,-
BRDA:66,9999,1,-
BRDA:66,9999,2,-
BRDA:66,9999,3,-
BRDA:66,9999,4,-
BRDA:66,9999,5,-
BRDA:66,9999,6,-
BRDA:66,9999,7,-
BRDA:66,9999,8,-
BRDA:66,9999,9,-
BRDA:68,9999,0,-
BRDA:68,9999,1,-
BRDA:68,9999,2,-
BRDA:68,9999,3,-
BRDA:68,9999,4,-
BRDA:73,9999,0,-
BRDA:73,9999,1,-
BRDA:73,9999,2,-
BRDA:73,9999,3,-
BRDA:73,9999,4,-
BRDA:73,9999,5,-
BRDA:73,9999,6,-
BRDA:73,9999,7,-
BRDA:73,9999,8,-
BRDA:73,9999,9,-
BRDA:86,9999,0,-
BRDA:86,9999,2,-
BRDA:86,9999,3,-
BRDA:86,9999,4,-
BRDA:86,9999,6,-
BRDA:86,9999,7,-
BRDA:86,9999,8,-
BRDA:86,9999,10,-
BRDA:86,9999,11,-
BRDA:86,9999,12,-
BRDA:86,9999,14,-
BRDA:86,9999,15,-
BRDA:86,9999,16,-
BRDA:86,9999,18,-
BRDA:86,9999,19,-
BRDA:86,9999,20,-
BRDA:86,9999,22,-
BRDA:86,9999,23,-
BRDA:86,9999,24,-
BRDA:86,9999,26,-
BRDA:86,9999,27,-
BRDA:86,9999,28,-
BRDA:86,9999,30,-
BRDA:86,9999,31,-
BRDA:89,9999,0,-
BRDA:89,9999,2,-
BRDA:89,9999,3,-
BRDA:89,9999,5,-
BRDA:89,9999,6,-
BRDA:89,9999,8,-
BRDA:89,9999,9,-
BRDA:89,9999,11,-
BRDA:89,9999,12,-
BRDA:89,9999,14,-
BRDA:89,9999,15,-
BRDA:89,9999,17,-
BRDA:89,9999,18,-
BRDA:89,9999,20,-
BRDA:89,9999,21,-
BRDA:89,9999,23,-
BRDA:95,9999,0,-
BRDA:95,9999,2,-
BRDA:95,9999,3,-
BRDA:95,9999,5,-
BRDA:95,9999,6,-
BRDA:95,9999,8,-
BRDA:95,9999,9,-
BRDA:95,9999,11,-
BRDA:95,9999,12,-
BRDA:95,9999,14,-
BRDA:95,9999,15,-
BRDA:95,9999,17,-
BRDA:95,9999,18,-
BRDA:95,9999,20,-
BRDA:95,9999,21,-
BRDA:95,9999,23,-
BRDA:99,9999,0,-
BRDA:99,9999,1,-
BRDA:99,9999,2,-
BRDA:99,9999,3,-
BRDA:99,9999,4,-
BRDA:99,9999,5,-
BRDA:99,9999,6,-
BRDA:99,9999,7,-
BRDA:105,9999,0,-
BRDA:105,9999,2,-
BRDA:105,9999,3,-
BRDA:105,9999,4,-
BRDA:105,9999,5,-
BRDA:105,9999,6,-
BRDA:105,9999,7,-
BRDA:105,9999,9,-
BRDA:105,9999,10,-
BRDA:105,9999,11,-
BRDA:105,9999,12,-
BRDA:105,9999,13,-
BRDA:105,9999,14,-
BRDA:105,9999,16,-
BRDA:105,9999,17,-
BRDA:105,9999,18,-
BRDA:105,9999,19,-
BRDA:105,9999,20,-
BRDA:105,9999,21,-
BRDA:105,9999,23,-
BRDA:105,9999,24,-
BRDA:105,9999,25,-
BRDA:105,9999,26,-
BRDA:105,9999,27,-
BRDA:105,9999,28,-
BRDA:105,9999,30,-
BRDA:105,9999,31,-
BRDA:105,9999,32,-
BRDA:105,9999,33,-
BRDA:105,9999,35,-
BRDA:105,9999,36,-
BRDA:105,9999,37,-
BRDA:105,9999,38,-
BRDA:115,9999,0,-
BRDA:115,9999,1,-
BRDA:115,9999,2,-
BRDA:115,9999,3,-
BRDA:115,9999,5,-
BRDA:115,9999,6,-
BRDA:115,9999,8,-
BRF:129
BRH:0
DA:66,0
DA:68,0
DA:73,0
DA:84,0
DA:86,0
DA:87,0
DA:89,0
DA:94,0
DA:95,0
DA:98,0
DA:99,0
DA:104,0
DA:105,0
DA:115,0
LF:14
LH:0
end_of_record
SF:/usr/include/c++/4.5/ostream
FN:108,_ZNSolsEPFRSoS_E
FN:508,_ZStlsISt11char_traitsIcEERSt13basic_ostreamIcT_ES5_PKc
FN:541,_ZSt4endlIcSt11char_traitsIcEERSt13basic_ostreamIT_T0_ES6_
FN:562,_ZSt5flushIcSt11char_traitsIcEERSt13basic_ostreamIT_T0_ES6_
FNDA:0,_ZNSolsEPFRSoS_E
FNDA:0,_ZStlsISt11char_traitsIcEERSt13basic_ostreamIcT_ES5_PKc
FNDA:0,_ZSt4endlIcSt11char_traitsIcEERSt13basic_ostreamIT_T0_ES6_
FNDA:0,_ZSt5flushIcSt11char_traitsIcEERSt13basic_ostreamIT_T0_ES6_
FNF:4
FNH:0
BRDA:113,9999,0,-
BRDA:113,9999,2,-
BRDA:510,9999,0,-
BRDA:510,9999,1,-
BRDA:511,9999,0,-
BRDA:513,9999,0,-
BRDA:513,9999,2,-
BRDA:515,9999,0,-
BRDA:542,9999,0,-
BRDA:542,9999,2,-
BRDA:542,9999,4,-
BRDA:542,9999,6,-
BRDA:563,9999,0,-
BRDA:563,9999,2,-
BRF:14
BRH:0
DA:108,0
DA:113,0
DA:508,0
DA:510,0
DA:511,0
DA:513,0
DA:515,0
DA:541,0
DA:542,0
DA:562,0
DA:563,0
LF:11
LH:0
end_of_record
SF:/usr/include/c++/4.5/bits/stl_algobase.h
FN:209,_ZSt3maxIjERKT_S2_S2_
FN:269,_ZNSt10_Iter_baseIPPvLb0EE7_S_baseES1_
FN:269,_ZNSt10_Iter_baseIN9__gnu_cxx17__normal_iteratorIPiSt6vectorIiSaIiEEEELb0EE7_S_baseES6_
FN:269,_ZNSt10_Iter_baseIN9__gnu_cxx17__normal_iteratorIPKiSt6vectorIiSaIiEEEELb0EE7_S_baseES7_
FN:269,_ZNSt10_Iter_baseISt23_Rb_tree_const_iteratorIiELb0EE7_S_baseES1_
FN:269,_ZNSt10_Iter_baseIP17_loop_spec_threadLb0EE7_S_baseES1_
FN:269,_ZNSt10_Iter_baseIPiLb0EE7_S_baseES0_
FN:269,_ZNSt10_Iter_baseIPPFPvS0_ELb0EE7_S_baseES3_
FN:269,_ZNSt10_Iter_baseIN9__gnu_cxx17__normal_iteratorIPPvSt6vectorIS2_SaIS2_EEEELb0EE7_S_baseES7_
FN:269,_ZNSt10_Iter_baseIN9__gnu_cxx17__normal_iteratorIPKPFPvS2_ESt6vectorIS4_SaIS4_EEEELb0EE7_S_baseESA_
FN:269,_ZNSt10_Iter_baseIN9__gnu_cxx17__normal_iteratorIPKPvSt6vectorIS2_SaIS2_EEEELb0EE7_S_baseES8_
FN:278,_ZNSt10_Iter_baseIN9__gnu_cxx17__normal_iteratorIPiSt6vectorIiSaIiEEEELb1EE7_S_baseES6_
FN:278,_ZNSt10_Iter_baseIN9__gnu_cxx17__normal_iteratorIPKiSt6vectorIiSaIiEEEELb1EE7_S_baseES7_
FN:278,_ZNSt10_Iter_baseIN9__gnu_cxx17__normal_iteratorIPPvSt6vectorIS2_SaIS2_EEEELb1EE7_S_baseES7_
FN:278,_ZNSt10_Iter_baseIN9__gnu_cxx17__normal_iteratorIPKPvSt6vectorIS2_SaIS2_EEEELb1EE7_S_baseES8_
FN:278,_ZNSt10_Iter_baseIN9__gnu_cxx17__normal_iteratorIPKPFPvS2_ESt6vectorIS4_SaIS4_EEEELb1EE7_S_baseESA_
FN:291,_ZSt12__niter_baseIN9__gnu_cxx17__normal_iteratorIPiSt6vectorIiSaIiEEEEENSt11_Niter_baseIT_E13iterator_typeES8_
FN:291,_ZSt12__niter_baseIPPFPvS0_EENSt11_Niter_baseIT_E13iterator_typeES5_
FN:291,_ZSt12__niter_baseIN9__gnu_cxx17__normal_iteratorIPPvSt6vectorIS2_SaIS2_EEEEENSt11_Niter_baseIT_E13iterator_typeES9_
FN:291,_ZSt12__niter_baseIPiENSt11_Niter_baseIT_E13iterator_typeES2_
FN:291,_ZSt12__niter_baseISt23_Rb_tree_const_iteratorIiEENSt11_Niter_baseIT_E13iterator_typeES3_
FN:291,_ZSt12__niter_baseIPPvENSt11_Niter_baseIT_E13iterator_typeES3_
FN:291,_ZSt12__niter_baseIN9__gnu_cxx17__normal_iteratorIPKPvSt6vectorIS2_SaIS2_EEEEENSt11_Niter_baseIT_E13iterator_typeESA_
FN:291,_ZSt12__niter_baseIN9__gnu_cxx17__normal_iteratorIPKiSt6vectorIiSaIiEEEEENSt11_Niter_baseIT_E13iterator_typeES9_
FN:291,_ZSt12__niter_baseIN9__gnu_cxx17__normal_iteratorIPKPFPvS2_ESt6vectorIS4_SaIS4_EEEEENSt11_Niter_baseIT_E13iterator_typeESC_
FN:291,_ZSt12__niter_baseIP17_loop_spec_threadENSt11_Niter_baseIT_E13iterator_typeES3_
FN:302,_ZSt12__miter_baseIN9__gnu_cxx17__normal_iteratorIPKPvSt6vectorIS2_SaIS2_EEEEENSt11_Miter_baseIT_E13iterator_typeESA_
FN:302,_ZSt12__miter_baseIN9__gnu_cxx17__normal_iteratorIPPvSt6vectorIS2_SaIS2_EEEEENSt11_Miter_baseIT_E13iterator_typeES9_
FN:302,_ZSt12__miter_baseIPPFPvS0_EENSt11_Miter_baseIT_E13iterator_typeES5_
FN:302,_ZSt12__miter_baseIPiENSt11_Miter_baseIT_E13iterator_typeES2_
FN:302,_ZSt12__miter_baseIN9__gnu_cxx17__normal_iteratorIPKPFPvS2_ESt6vectorIS4_SaIS4_EEEEENSt11_Miter_baseIT_E13iterator_typeESC_
FN:302,_ZSt12__miter_baseIN9__gnu_cxx17__normal_iteratorIPiSt6vectorIiSaIiEEEEENSt11_Miter_baseIT_E13iterator_typeES8_
FN:302,_ZSt12__miter_baseISt23_Rb_tree_const_iteratorIiEENSt11_Miter_baseIT_E13iterator_typeES3_
FN:302,_ZSt12__miter_baseIPPvENSt11_Miter_baseIT_E13iterator_typeES3_
FN:302,_ZSt12__miter_baseIP17_loop_spec_threadENSt11_Miter_baseIT_E13iterator_typeES3_
FN:302,_ZSt12__miter_baseIN9__gnu_cxx17__normal_iteratorIPKiSt6vectorIiSaIiEEEEENSt11_Miter_baseIT_E13iterator_typeES9_
FN:316,_ZNSt11__copy_moveILb0ELb0ESt26bidirectional_iterator_tagE8__copy_mISt23_Rb_tree_const_iteratorIiEPiEET0_T_S7_S6_
FN:382,_ZNSt11__copy_moveILb0ELb1ESt26random_access_iterator_tagE8__copy_mIPFPvS3_EEEPT_PKS6_S9_S7_
FN:382,_ZNSt11__copy_moveILb0ELb1ESt26random_access_iterator_tagE8__copy_mIiEEPT_PKS3_S6_S4_
FN:382,_ZNSt11__copy_moveILb0ELb1ESt26random_access_iterator_tagE8__copy_mIPvEEPT_PKS4_S7_S5_
FN:393,_ZSt13__copy_move_aILb0EPiS0_ET1_T0_S2_S1_
FN:393,_ZSt13__copy_move_aILb0EPPvS1_ET1_T0_S3_S2_
FN:393,_ZSt13__copy_move_aILb0EPKPFPvS0_EPS2_ET1_T0_S7_S6_
FN:393,_ZSt13__copy_move_aILb0ESt23_Rb_tree_const_iteratorIiEPiET1_T0_S4_S3_
FN:393,_ZSt13__copy_move_aILb0EPPFPvS0_ES3_ET1_T0_S5_S4_
FN:393,_ZSt13__copy_move_aILb0EPKPvPS0_ET1_T0_S5_S4_
FN:393,_ZSt13__copy_move_aILb0EPKiPiET1_T0_S4_S3_
FN:438,_ZSt14__copy_move_a2ILb0EN9__gnu_cxx17__normal_iteratorIPKiSt6vectorIiSaIiEEEEPiET1_T0_SA_S9_
FN:438,_ZSt14__copy_move_a2ILb0ESt23_Rb_tree_const_iteratorIiEPiET1_T0_S4_S3_
FN:438,_ZSt14__copy_move_a2ILb0EPPvS1_ET1_T0_S3_S2_
FN:438,_ZSt14__copy_move_a2ILb0EPiS0_ET1_T0_S2_S1_
FN:438,_ZSt14__copy_move_a2ILb0EN9__gnu_cxx17__normal_iteratorIPPvSt6vectorIS2_SaIS2_EEEES7_ET1_T0_S9_S8_
FN:438,_ZSt14__copy_move_a2ILb0EPPFPvS0_ES3_ET1_T0_S5_S4_
FN:438,_ZSt14__copy_move_a2ILb0EN9__gnu_cxx17__normal_iteratorIPKPFPvS2_ESt6vectorIS4_SaIS4_EEEEPS4_ET1_T0_SD_SC_
FN:438,_ZSt14__copy_move_a2ILb0EN9__gnu_cxx17__normal_iteratorIPiSt6vectorIiSaIiEEEES2_ET1_T0_S8_S7_
FN:438,_ZSt14__copy_move_a2ILb0EN9__gnu_cxx17__normal_iteratorIPKiSt6vectorIiSaIiEEEENS1_IPiS6_EEET1_T0_SB_SA_
FN:438,_ZSt14__copy_move_a2ILb0EN9__gnu_cxx17__normal_iteratorIPKPvSt6vectorIS2_SaIS2_EEEEPS2_ET1_T0_SB_SA_
FN:438,_ZSt14__copy_move_a2ILb0ESt23_Rb_tree_const_iteratorIiEN9__gnu_cxx17__normal_iteratorIPiSt6vectorIiSaIiEEEEET1_T0_SA_S9_
FN:438,_ZSt14__copy_move_a2ILb0EN9__gnu_cxx17__normal_iteratorIPiSt6vectorIiSaIiEEEES6_ET1_T0_S8_S7_
FN:464,_ZSt4copyIN9__gnu_cxx17__normal_iteratorIPKPFPvS2_ESt6vectorIS4_SaIS4_EEEEPS4_ET0_T_SD_SC_
FN:464,_ZSt4copyIN9__gnu_cxx17__normal_iteratorIPKPvSt6vectorIS2_SaIS2_EEEEPS2_ET0_T_SB_SA_
FN:464,_ZSt4copyIN9__gnu_cxx17__normal_iteratorIPPvSt6vectorIS2_SaIS2_EEEES7_ET0_T_S9_S8_
FN:464,_ZSt4copyIPiS0_ET0_T_S2_S1_
FN:464,_ZSt4copyIN9__gnu_cxx17__normal_iteratorIPiSt6vectorIiSaIiEEEES2_ET0_T_S8_S7_
FN:464,_ZSt4copyIN9__gnu_cxx17__normal_iteratorIPiSt6vectorIiSaIiEEEES6_ET0_T_S8_S7_
FN:464,_ZSt4copyISt23_Rb_tree_const_iteratorIiEPiET0_T_S4_S3_
FN:464,_ZSt4copyIN9__gnu_cxx17__normal_iteratorIPKiSt6vectorIiSaIiEEEENS1_IPiS6_EEET0_T_SB_SA_
FN:464,_ZSt4copyIPPFPvS0_ES3_ET0_T_S5_S4_
FN:464,_ZSt4copyIN9__gnu_cxx17__normal_iteratorIPKiSt6vectorIiSaIiEEEEPiET0_T_SA_S9_
FN:464,_ZSt4copyISt23_Rb_tree_const_iteratorIiEN9__gnu_cxx17__normal_iteratorIPiSt6vectorIiSaIiEEEEET0_T_SA_S9_
FN:464,_ZSt4copyIPPvS1_ET0_T_S3_S2_
FN:547,_ZNSt20__copy_move_backwardILb0ELb0ESt26random_access_iterator_tagE13__copy_move_bIP17_loop_spec_threadS4_EET0_T_S6_S5_
FN:577,_ZNSt20__copy_move_backwardILb0ELb1ESt26random_access_iterator_tagE13__copy_move_bIiEEPT_PKS3_S6_S4_
FN:577,_ZNSt20__copy_move_backwardILb0ELb1ESt26random_access_iterator_tagE13__copy_move_bIPvEEPT_PKS4_S7_S5_
FN:577,_ZNSt20__copy_move_backwardILb0ELb1ESt26random_access_iterator_tagE13__copy_move_bIPFPvS3_EEEPT_PKS6_S9_S7_
FN:588,_ZSt22__copy_move_backward_aILb0EP17_loop_spec_threadS1_ET1_T0_S3_S2_
FN:588,_ZSt22__copy_move_backward_aILb0EPPFPvS0_ES3_ET1_T0_S5_S4_
FN:588,_ZSt22__copy_move_backward_aILb0EPiS0_ET1_T0_S2_S1_
FN:588,_ZSt22__copy_move_backward_aILb0EPPvS1_ET1_T0_S3_S2_
FN:606,_ZSt23__copy_move_backward_a2ILb0EPPvS1_ET1_T0_S3_S2_
FN:606,_ZSt23__copy_move_backward_a2ILb0EP17_loop_spec_threadS1_ET1_T0_S3_S2_
FN:606,_ZSt23__copy_move_backward_a2ILb0EPPFPvS0_ES3_ET1_T0_S5_S4_
FN:606,_ZSt23__copy_move_backward_a2ILb0EPiS0_ET1_T0_S2_S1_
FN:633,_ZSt13copy_backwardIPPFPvS0_ES3_ET0_T_S5_S4_
FN:633,_ZSt13copy_backwardIPPvS1_ET0_T_S3_S2_
FN:633,_ZSt13copy_backwardIPiS0_ET0_T_S2_S1_
FN:633,_ZSt13copy_backwardIP17_loop_spec_threadS1_ET0_T_S3_S2_
FN:692,_ZSt8__fill_aIP17_loop_spec_threadS0_EN9__gnu_cxx11__enable_ifIXntsrSt11__is_scalarIT0_E7__valueEvE6__typeET_S9_RKS5_
FN:735,_ZSt4fillIP17_loop_spec_threadS0_EvT_S2_RKT0_
FNDA:0,_ZSt3maxIjERKT_S2_S2_
FNDA:0,_ZNSt10_Iter_baseIN9__gnu_cxx17__normal_iteratorIPiSt6vectorIiSaIiEEEELb0EE7_S_baseES6_
FNDA:0,_ZNSt10_Iter_baseIN9__gnu_cxx17__normal_iteratorIPPvSt6vectorIS2_SaIS2_EEEELb0EE7_S_baseES7_
FNDA:0,_ZNSt10_Iter_baseIPiLb0EE7_S_baseES0_
FNDA:0,_ZNSt10_Iter_baseIN9__gnu_cxx17__normal_iteratorIPKiSt6vectorIiSaIiEEEELb0EE7_S_baseES7_
FNDA:0,_ZNSt10_Iter_baseIPPFPvS0_ELb0EE7_S_baseES3_
FNDA:0,_ZNSt10_Iter_baseIPPvLb0EE7_S_baseES1_
FNDA:0,_ZNSt10_Iter_baseISt23_Rb_tree_const_iteratorIiELb0EE7_S_baseES1_
FNDA:0,_ZNSt10_Iter_baseIP17_loop_spec_threadLb0EE7_S_baseES1_
FNDA:0,_ZNSt10_Iter_baseIN9__gnu_cxx17__normal_iteratorIPKPFPvS2_ESt6vectorIS4_SaIS4_EEEELb0EE7_S_baseESA_
FNDA:0,_ZNSt10_Iter_baseIN9__gnu_cxx17__normal_iteratorIPKPvSt6vectorIS2_SaIS2_EEEELb0EE7_S_baseES8_
FNDA:0,_ZNSt10_Iter_baseIN9__gnu_cxx17__normal_iteratorIPiSt6vectorIiSaIiEEEELb1EE7_S_baseES6_
FNDA:0,_ZNSt10_Iter_baseIN9__gnu_cxx17__normal_iteratorIPPvSt6vectorIS2_SaIS2_EEEELb1EE7_S_baseES7_
FNDA:0,_ZNSt10_Iter_baseIN9__gnu_cxx17__normal_iteratorIPKiSt6vectorIiSaIiEEEELb1EE7_S_baseES7_
FNDA:0,_ZNSt10_Iter_baseIN9__gnu_cxx17__normal_iteratorIPKPFPvS2_ESt6vectorIS4_SaIS4_EEEELb1EE7_S_baseESA_
FNDA:0,_ZNSt10_Iter_baseIN9__gnu_cxx17__normal_iteratorIPKPvSt6vectorIS2_SaIS2_EEEELb1EE7_S_baseES8_
FNDA:0,_ZSt12__niter_baseIPiENSt11_Niter_baseIT_E13iterator_typeES2_
FNDA:0,_ZSt12__niter_baseIN9__gnu_cxx17__normal_iteratorIPiSt6vectorIiSaIiEEEEENSt11_Niter_baseIT_E13iterator_typeES8_
FNDA:0,_ZSt12__niter_baseIN9__gnu_cxx17__normal_iteratorIPPvSt6vectorIS2_SaIS2_EEEEENSt11_Niter_baseIT_E13iterator_typeES9_
FNDA:0,_ZSt12__niter_baseIPPFPvS0_EENSt11_Niter_baseIT_E13iterator_typeES5_
FNDA:0,_ZSt12__niter_baseIPPvENSt11_Niter_baseIT_E13iterator_typeES3_
FNDA:0,_ZSt12__niter_baseISt23_Rb_tree_const_iteratorIiEENSt11_Niter_baseIT_E13iterator_typeES3_
FNDA:0,_ZSt12__niter_baseIP17_loop_spec_threadENSt11_Niter_baseIT_E13iterator_typeES3_
FNDA:0,_ZSt12__niter_baseIN9__gnu_cxx17__normal_iteratorIPKiSt6vectorIiSaIiEEEEENSt11_Niter_baseIT_E13iterator_typeES9_
FNDA:0,_ZSt12__niter_baseIN9__gnu_cxx17__normal_iteratorIPKPFPvS2_ESt6vectorIS4_SaIS4_EEEEENSt11_Niter_baseIT_E13iterator_typeESC_
FNDA:0,_ZSt12__niter_baseIN9__gnu_cxx17__normal_iteratorIPKPvSt6vectorIS2_SaIS2_EEEEENSt11_Niter_baseIT_E13iterator_typeESA_
FNDA:0,_ZSt12__miter_baseIN9__gnu_cxx17__normal_iteratorIPiSt6vectorIiSaIiEEEEENSt11_Miter_baseIT_E13iterator_typeES8_
FNDA:0,_ZSt12__miter_baseIN9__gnu_cxx17__normal_iteratorIPPvSt6vectorIS2_SaIS2_EEEEENSt11_Miter_baseIT_E13iterator_typeES9_
FNDA:0,_ZSt12__miter_baseIPiENSt11_Miter_baseIT_E13iterator_typeES2_
FNDA:0,_ZSt12__miter_baseIN9__gnu_cxx17__normal_iteratorIPKiSt6vectorIiSaIiEEEEENSt11_Miter_baseIT_E13iterator_typeES9_
FNDA:0,_ZSt12__miter_baseIPPFPvS0_EENSt11_Miter_baseIT_E13iterator_typeES5_
FNDA:0,_ZSt12__miter_baseIPPvENSt11_Miter_baseIT_E13iterator_typeES3_
FNDA:0,_ZSt12__miter_baseISt23_Rb_tree_const_iteratorIiEENSt11_Miter_baseIT_E13iterator_typeES3_
FNDA:0,_ZSt12__miter_baseIP17_loop_spec_threadENSt11_Miter_baseIT_E13iterator_typeES3_
FNDA:0,_ZSt12__miter_baseIN9__gnu_cxx17__normal_iteratorIPKPFPvS2_ESt6vectorIS4_SaIS4_EEEEENSt11_Miter_baseIT_E13iterator_typeESC_
FNDA:0,_ZSt12__miter_baseIN9__gnu_cxx17__normal_iteratorIPKPvSt6vectorIS2_SaIS2_EEEEENSt11_Miter_baseIT_E13iterator_typeESA_
FNDA:0,_ZNSt11__copy_moveILb0ELb0ESt26bidirectional_iterator_tagE8__copy_mISt23_Rb_tree_const_iteratorIiEPiEET0_T_S7_S6_
FNDA:0,_ZNSt11__copy_moveILb0ELb1ESt26random_access_iterator_tagE8__copy_mIiEEPT_PKS3_S6_S4_
FNDA:0,_ZNSt11__copy_moveILb0ELb1ESt26random_access_iterator_tagE8__copy_mIPvEEPT_PKS4_S7_S5_
FNDA:0,_ZNSt11__copy_moveILb0ELb1ESt26random_access_iterator_tagE8__copy_mIPFPvS3_EEEPT_PKS6_S9_S7_
FNDA:0,_ZSt13__copy_move_aILb0EPiS0_ET1_T0_S2_S1_
FNDA:0,_ZSt13__copy_move_aILb0EPPvS1_ET1_T0_S3_S2_
FNDA:0,_ZSt13__copy_move_aILb0EPKiPiET1_T0_S4_S3_
FNDA:0,_ZSt13__copy_move_aILb0ESt23_Rb_tree_const_iteratorIiEPiET1_T0_S4_S3_
FNDA:0,_ZSt13__copy_move_aILb0EPKPvPS0_ET1_T0_S5_S4_
FNDA:0,_ZSt13__copy_move_aILb0EPKPFPvS0_EPS2_ET1_T0_S7_S6_
FNDA:0,_ZSt13__copy_move_aILb0EPPFPvS0_ES3_ET1_T0_S5_S4_
FNDA:0,_ZSt14__copy_move_a2ILb0EPiS0_ET1_T0_S2_S1_
FNDA:0,_ZSt14__copy_move_a2ILb0EN9__gnu_cxx17__normal_iteratorIPiSt6vectorIiSaIiEEEES6_ET1_T0_S8_S7_
FNDA:0,_ZSt14__copy_move_a2ILb0EN9__gnu_cxx17__normal_iteratorIPPvSt6vectorIS2_SaIS2_EEEES7_ET1_T0_S9_S8_
FNDA:0,_ZSt14__copy_move_a2ILb0EN9__gnu_cxx17__normal_iteratorIPKiSt6vectorIiSaIiEEEEPiET1_T0_SA_S9_
FNDA:0,_ZSt14__copy_move_a2ILb0EN9__gnu_cxx17__normal_iteratorIPKiSt6vectorIiSaIiEEEENS1_IPiS6_EEET1_T0_SB_SA_
FNDA:0,_ZSt14__copy_move_a2ILb0ESt23_Rb_tree_const_iteratorIiEN9__gnu_cxx17__normal_iteratorIPiSt6vectorIiSaIiEEEEET1_T0_SA_S9_
FNDA:0,_ZSt14__copy_move_a2ILb0ESt23_Rb_tree_const_iteratorIiEPiET1_T0_S4_S3_
FNDA:0,_ZSt14__copy_move_a2ILb0EN9__gnu_cxx17__normal_iteratorIPiSt6vectorIiSaIiEEEES2_ET1_T0_S8_S7_
FNDA:0,_ZSt14__copy_move_a2ILb0EPPvS1_ET1_T0_S3_S2_
FNDA:0,_ZSt14__copy_move_a2ILb0EPPFPvS0_ES3_ET1_T0_S5_S4_
FNDA:0,_ZSt14__copy_move_a2ILb0EN9__gnu_cxx17__normal_iteratorIPKPFPvS2_ESt6vectorIS4_SaIS4_EEEEPS4_ET1_T0_SD_SC_
FNDA:0,_ZSt14__copy_move_a2ILb0EN9__gnu_cxx17__normal_iteratorIPKPvSt6vectorIS2_SaIS2_EEEEPS2_ET1_T0_SB_SA_
FNDA:0,_ZSt4copyIPiS0_ET0_T_S2_S1_
FNDA:0,_ZSt4copyIN9__gnu_cxx17__normal_iteratorIPiSt6vectorIiSaIiEEEES6_ET0_T_S8_S7_
FNDA:0,_ZSt4copyIN9__gnu_cxx17__normal_iteratorIPPvSt6vectorIS2_SaIS2_EEEES7_ET0_T_S9_S8_
FNDA:0,_ZSt4copyIN9__gnu_cxx17__normal_iteratorIPKiSt6vectorIiSaIiEEEEPiET0_T_SA_S9_
FNDA:0,_ZSt4copyIN9__gnu_cxx17__normal_iteratorIPKiSt6vectorIiSaIiEEEENS1_IPiS6_EEET0_T_SB_SA_
FNDA:0,_ZSt4copyISt23_Rb_tree_const_iteratorIiEN9__gnu_cxx17__normal_iteratorIPiSt6vectorIiSaIiEEEEET0_T_SA_S9_
FNDA:0,_ZSt4copyISt23_Rb_tree_const_iteratorIiEPiET0_T_S4_S3_
FNDA:0,_ZSt4copyIN9__gnu_cxx17__normal_iteratorIPiSt6vectorIiSaIiEEEES2_ET0_T_S8_S7_
FNDA:0,_ZSt4copyIPPvS1_ET0_T_S3_S2_
FNDA:0,_ZSt4copyIPPFPvS0_ES3_ET0_T_S5_S4_
FNDA:0,_ZSt4copyIN9__gnu_cxx17__normal_iteratorIPKPFPvS2_ESt6vectorIS4_SaIS4_EEEEPS4_ET0_T_SD_SC_
FNDA:0,_ZSt4copyIN9__gnu_cxx17__normal_iteratorIPKPvSt6vectorIS2_SaIS2_EEEEPS2_ET0_T_SB_SA_
FNDA:0,_ZNSt20__copy_move_backwardILb0ELb0ESt26random_access_iterator_tagE13__copy_move_bIP17_loop_spec_threadS4_EET0_T_S6_S5_
FNDA:0,_ZNSt20__copy_move_backwardILb0ELb1ESt26random_access_iterator_tagE13__copy_move_bIiEEPT_PKS3_S6_S4_
FNDA:0,_ZNSt20__copy_move_backwardILb0ELb1ESt26random_access_iterator_tagE13__copy_move_bIPFPvS3_EEEPT_PKS6_S9_S7_
FNDA:0,_ZNSt20__copy_move_backwardILb0ELb1ESt26random_access_iterator_tagE13__copy_move_bIPvEEPT_PKS4_S7_S5_
FNDA:0,_ZSt22__copy_move_backward_aILb0EPiS0_ET1_T0_S2_S1_
FNDA:0,_ZSt22__copy_move_backward_aILb0EPPFPvS0_ES3_ET1_T0_S5_S4_
FNDA:0,_ZSt22__copy_move_backward_aILb0EPPvS1_ET1_T0_S3_S2_
FNDA:0,_ZSt22__copy_move_backward_aILb0EP17_loop_spec_threadS1_ET1_T0_S3_S2_
FNDA:0,_ZSt23__copy_move_backward_a2ILb0EPiS0_ET1_T0_S2_S1_
FNDA:0,_ZSt23__copy_move_backward_a2ILb0EPPFPvS0_ES3_ET1_T0_S5_S4_
FNDA:0,_ZSt23__copy_move_backward_a2ILb0EPPvS1_ET1_T0_S3_S2_
FNDA:0,_ZSt23__copy_move_backward_a2ILb0EP17_loop_spec_threadS1_ET1_T0_S3_S2_
FNDA:0,_ZSt13copy_backwardIPiS0_ET0_T_S2_S1_
FNDA:0,_ZSt13copy_backwardIPPFPvS0_ES3_ET0_T_S5_S4_
FNDA:0,_ZSt13copy_backwardIPPvS1_ET0_T_S3_S2_
FNDA:0,_ZSt13copy_backwardIP17_loop_spec_threadS1_ET0_T_S3_S2_
FNDA:0,_ZSt8__fill_aIP17_loop_spec_threadS0_EN9__gnu_cxx11__enable_ifIXntsrSt11__is_scalarIT0_E7__valueEvE6__typeET_S9_RKS5_
FNDA:0,_ZSt4fillIP17_loop_spec_threadS0_EvT_S2_RKT0_
FNF:89
FNH:0
BRDA:214,9999,0,-
BRDA:214,9999,1,-
BRDA:215,9999,0,-
BRDA:216,9999,0,-
BRDA:216,9999,1,-
BRDA:270,9999,0,-
BRDA:270,9999,1,-
BRDA:270,9999,2,-
BRDA:270,9999,3,-
BRDA:270,9999,4,-
BRDA:270,9999,5,-
BRDA:270,9999,6,-
BRDA:270,9999,7,-
BRDA:270,9999,8,-
BRDA:270,9999,9,-
BRDA:279,9999,0,-
BRDA:279,9999,2,-
BRDA:279,9999,3,-
BRDA:279,9999,5,-
BRDA:279,9999,6,-
BRDA:279,9999,8,-
BRDA:279,9999,9,-
BRDA:279,9999,11,-
BRDA:279,9999,12,-
BRDA:279,9999,14,-
BRDA:292,9999,0,-
BRDA:292,9999,2,-
BRDA:292,9999,3,-
BRDA:292,9999,5,-
BRDA:292,9999,6,-
BRDA:292,9999,8,-
BRDA:292,9999,9,-
BRDA:292,9999,11,-
BRDA:292,9999,12,-
BRDA:292,9999,14,-
BRDA:292,9999,15,-
BRDA:292,9999,17,-
BRDA:292,9999,18,-
BRDA:292,9999,20,-
BRDA:292,9999,21,-
BRDA:292,9999,23,-
BRDA:292,9999,24,-
BRDA:292,9999,26,-
BRDA:292,9999,27,-
BRDA:292,9999,29,-
BRDA:303,9999,0,-
BRDA:303,9999,2,-
BRDA:303,9999,3,-
BRDA:303,9999,5,-
BRDA:303,9999,6,-
BRDA:303,9999,8,-
BRDA:303,9999,9,-
BRDA:303,9999,11,-
BRDA:303,9999,12,-
BRDA:303,9999,14,-
BRDA:303,9999,15,-
BRDA:303,9999,17,-
BRDA:303,9999,18,-
BRDA:303,9999,20,-
BRDA:303,9999,21,-
BRDA:303,9999,23,-
BRDA:303,9999,24,-
BRDA:303,9999,26,-
BRDA:303,9999,27,-
BRDA:303,9999,29,-
BRDA:318,9999,0,-
BRDA:318,9999,1,-
BRDA:318,9999,3,-
BRDA:318,9999,5,-
BRDA:318,9999,6,-
BRDA:319,9999,0,-
BRDA:320,9999,0,-
BRDA:385,9999,0,-
BRDA:385,9999,1,-
BRDA:385,9999,2,-
BRDA:385,9999,3,-
BRDA:385,9999,4,-
BRDA:385,9999,5,-
BRDA:386,9999,0,-
BRDA:386,9999,1,-
BRDA:386,9999,2,-
BRDA:387,9999,0,-
BRDA:387,9999,1,-
BRDA:387,9999,2,-
BRDA:404,9999,0,-
BRDA:404,9999,2,-
BRDA:404,9999,3,-
BRDA:404,9999,5,-
BRDA:404,9999,6,-
BRDA:404,9999,8,-
BRDA:404,9999,9,-
BRDA:404,9999,11,-
BRDA:404,9999,12,-
BRDA:404,9999,14,-
BRDA:404,9999,15,-
BRDA:404,9999,17,-
BRDA:404,9999,18,-
BRDA:404,9999,20,-
BRDA:442,9999,0,-
BRDA:442,9999,2,-
BRDA:442,9999,4,-
BRDA:442,9999,6,-
BRDA:442,9999,8,-
BRDA:442,9999,9,-
BRDA:442,9999,11,-
BRDA:442,9999,13,-
BRDA:442,9999,15,-
BRDA:442,9999,17,-
BRDA:442,9999,19,-
BRDA:442,9999,20,-
BRDA:442,9999,22,-
BRDA:442,9999,24,-
BRDA:442,9999,26,-
BRDA:442,9999,28,-
BRDA:442,9999,30,-
BRDA:442,9999,31,-
BRDA:442,9999,33,-
BRDA:442,9999,35,-
BRDA:442,9999,37,-
BRDA:442,9999,39,-
BRDA:442,9999,40,-
BRDA:442,9999,42,-
BRDA:442,9999,44,-
BRDA:442,9999,46,-
BRDA:442,9999,48,-
BRDA:442,9999,50,-
BRDA:442,9999,51,-
BRDA:442,9999,53,-
BRDA:442,9999,55,-
BRDA:442,9999,57,-
BRDA:442,9999,59,-
BRDA:442,9999,61,-
BRDA:442,9999,62,-
BRDA:442,9999,64,-
BRDA:442,9999,66,-
BRDA:442,9999,68,-
BRDA:442,9999,70,-
BRDA:442,9999,71,-
BRDA:442,9999,73,-
BRDA:442,9999,75,-
BRDA:442,9999,77,-
BRDA:442,9999,79,-
BRDA:442,9999,80,-
BRDA:442,9999,82,-
BRDA:442,9999,84,-
BRDA:442,9999,86,-
BRDA:442,9999,88,-
BRDA:442,9999,89,-
BRDA:442,9999,91,-
BRDA:442,9999,93,-
BRDA:442,9999,95,-
BRDA:442,9999,97,-
BRDA:442,9999,98,-
BRDA:442,9999,100,-
BRDA:442,9999,102,-
BRDA:442,9999,104,-
BRDA:442,9999,106,-
BRDA:442,9999,107,-
BRDA:442,9999,109,-
BRDA:442,9999,111,-
BRDA:442,9999,113,-
BRDA:442,9999,115,-
BRDA:474,9999,0,-
BRDA:474,9999,2,-
BRDA:474,9999,4,-
BRDA:474,9999,6,-
BRDA:474,9999,7,-
BRDA:474,9999,9,-
BRDA:474,9999,11,-
BRDA:474,9999,13,-
BRDA:474,9999,14,-
BRDA:474,9999,16,-
BRDA:474,9999,18,-
BRDA:474,9999,20,-
BRDA:474,9999,21,-
BRDA:474,9999,23,-
BRDA:474,9999,25,-
BRDA:474,9999,27,-
BRDA:474,9999,28,-
BRDA:474,9999,30,-
BRDA:474,9999,32,-
BRDA:474,9999,34,-
BRDA:474,9999,35,-
BRDA:474,9999,37,-
BRDA:474,9999,39,-
BRDA:474,9999,41,-
BRDA:474,9999,42,-
BRDA:474,9999,44,-
BRDA:474,9999,46,-
BRDA:474,9999,48,-
BRDA:474,9999,49,-
BRDA:474,9999,51,-
BRDA:474,9999,53,-
BRDA:474,9999,55,-
BRDA:474,9999,56,-
BRDA:474,9999,58,-
BRDA:474,9999,60,-
BRDA:474,9999,62,-
BRDA:474,9999,63,-
BRDA:474,9999,65,-
BRDA:474,9999,67,-
BRDA:474,9999,69,-
BRDA:474,9999,70,-
BRDA:474,9999,72,-
BRDA:474,9999,74,-
BRDA:474,9999,76,-
BRDA:474,9999,77,-
BRDA:474,9999,79,-
BRDA:474,9999,81,-
BRDA:474,9999,83,-
BRDA:550,9999,0,-
BRDA:550,9999,1,-
BRDA:550,9999,2,-
BRDA:550,9999,3,-
BRDA:551,9999,0,-
BRDA:552,9999,0,-
BRDA:580,9999,0,-
BRDA:580,9999,1,-
BRDA:580,9999,2,-
BRDA:580,9999,3,-
BRDA:580,9999,4,-
BRDA:580,9999,5,-
BRDA:581,9999,0,-
BRDA:581,9999,1,-
BRDA:581,9999,2,-
BRDA:582,9999,0,-
BRDA:582,9999,1,-
BRDA:582,9999,2,-
BRDA:601,9999,0,-
BRDA:601,9999,2,-
BRDA:601,9999,3,-
BRDA:601,9999,5,-
BRDA:601,9999,6,-
BRDA:601,9999,8,-
BRDA:601,9999,9,-
BRDA:601,9999,11,-
BRDA:610,9999,0,-
BRDA:610,9999,2,-
BRDA:610,9999,4,-
BRDA:610,9999,6,-
BRDA:610,9999,8,-
BRDA:610,9999,9,-
BRDA:610,9999,11,-
BRDA:610,9999,13,-
BRDA:610,9999,15,-
BRDA:610,9999,17,-
BRDA:610,9999,18,-
BRDA:610,9999,20,-
BRDA:610,9999,22,-
BRDA:610,9999,24,-
BRDA:610,9999,26,-
BRDA:610,9999,27,-
BRDA:610,9999,29,-
BRDA:610,9999,31,-
BRDA:610,9999,33,-
BRDA:610,9999,35,-
BRDA:645,9999,0,-
BRDA:645,9999,2,-
BRDA:645,9999,4,-
BRDA:645,9999,6,-
BRDA:645,9999,7,-
BRDA:645,9999,9,-
BRDA:645,9999,11,-
BRDA:645,9999,13,-
BRDA:645,9999,14,-
BRDA:645,9999,16,-
BRDA:645,9999,18,-
BRDA:645,9999,20,-
BRDA:645,9999,21,-
BRDA:645,9999,23,-
BRDA:645,9999,25,-
BRDA:645,9999,27,-
BRDA:695,9999,0,-
BRDA:695,9999,1,-
BRDA:695,9999,2,-
BRDA:695,9999,3,-
BRDA:696,9999,0,-
BRDA:697,9999,0,-
BRDA:742,9999,0,-
BRDA:742,9999,2,-
BRDA:742,9999,4,-
BRDA:744,9999,0,-
BRF:282
BRH:0
DA:209,0
DA:214,0
DA:215,0
DA:216,0
DA:269,0
DA:270,0
DA:278,0
DA:279,0
DA:291,0
DA:292,0
DA:302,0
DA:303,0
DA:316,0
DA:318,0
DA:319,0
DA:320,0
DA:382,0
DA:384,0
DA:385,0
DA:386,0
DA:387,0
DA:393,0
DA:401,0
DA:404,0
DA:438,0
DA:442,0
DA:464,0
DA:474,0
DA:547,0
DA:550,0
DA:551,0
DA:552,0
DA:577,0
DA:579,0
DA:580,0
DA:581,0
DA:582,0
DA:588,0
DA:596,0
DA:601,0
DA:606,0
DA:610,0
DA:633,0
DA:645,0
DA:692,0
DA:695,0
DA:696,0
DA:697,0
DA:735,0
DA:742,0
DA:744,0
LF:51
LH:0
end_of_record
SF:/usr/include/c++/4.5/bits/stl_construct.h
FN:75,_ZSt10_ConstructI17_loop_spec_threadS0_EvPT_RKT0_
FN:88,_ZSt8_DestroyI17_loop_spec_threadEvPT_
FN:96,_ZNSt12_Destroy_auxILb0EE9__destroyIP17_loop_spec_threadEEvT_S4_
FN:108,_ZNSt12_Destroy_auxILb1EE9__destroyIPPFPvS2_EEEvT_S6_
FN:108,_ZNSt12_Destroy_auxILb1EE9__destroyIPPvEEvT_S4_
FN:108,_ZNSt12_Destroy_auxILb1EE9__destroyIPiEEvT_S3_
FN:108,_ZNSt12_Destroy_auxILb1EE9__destroyIN9__gnu_cxx17__normal_iteratorIPiSt6vectorIiSaIiEEEEEEvT_S9_
FN:118,_ZSt8_DestroyIPiEvT_S1_
FN:118,_ZSt8_DestroyIP17_loop_spec_threadEvT_S2_
FN:118,_ZSt8_DestroyIPPvEvT_S2_
FN:118,_ZSt8_DestroyIPPFPvS0_EEvT_S4_
FN:118,_ZSt8_DestroyIN9__gnu_cxx17__normal_iteratorIPiSt6vectorIiSaIiEEEEEvT_S7_
FN:145,_ZSt8_DestroyIPiiEvT_S1_RSaIT0_E
FN:145,_ZSt8_DestroyIN9__gnu_cxx17__normal_iteratorIPiSt6vectorIiSaIiEEEEiEvT_S7_RSaIT0_E
FN:145,_ZSt8_DestroyIPPFPvS0_ES2_EvT_S4_RSaIT0_E
FN:145,_ZSt8_DestroyIP17_loop_spec_threadS0_EvT_S2_RSaIT0_E
FN:145,_ZSt8_DestroyIPPvS0_EvT_S2_RSaIT0_E
FNDA:0,_ZSt10_ConstructI17_loop_spec_threadS0_EvPT_RKT0_
FNDA:0,_ZSt8_DestroyI17_loop_spec_threadEvPT_
FNDA:0,_ZNSt12_Destroy_auxILb0EE9__destroyIP17_loop_spec_threadEEvT_S4_
FNDA:0,_ZNSt12_Destroy_auxILb1EE9__destroyIPiEEvT_S3_
FNDA:0,_ZNSt12_Destroy_auxILb1EE9__destroyIPPvEEvT_S4_
FNDA:0,_ZNSt12_Destroy_auxILb1EE9__destroyIPPFPvS2_EEEvT_S6_
FNDA:0,_ZNSt12_Destroy_auxILb1EE9__destroyIN9__gnu_cxx17__normal_iteratorIPiSt6vectorIiSaIiEEEEEEvT_S9_
FNDA:0,_ZSt8_DestroyIPiEvT_S1_
FNDA:0,_ZSt8_DestroyIPPvEvT_S2_
FNDA:0,_ZSt8_DestroyIPPFPvS0_EEvT_S4_
FNDA:0,_ZSt8_DestroyIP17_loop_spec_threadEvT_S2_
FNDA:0,_ZSt8_DestroyIN9__gnu_cxx17__normal_iteratorIPiSt6vectorIiSaIiEEEEEvT_S7_
FNDA:0,_ZSt8_DestroyIPiiEvT_S1_RSaIT0_E
FNDA:0,_ZSt8_DestroyIPPvS0_EvT_S2_RSaIT0_E
FNDA:0,_ZSt8_DestroyIPPFPvS0_ES2_EvT_S4_RSaIT0_E
FNDA:0,_ZSt8_DestroyIP17_loop_spec_threadS0_EvT_S2_RSaIT0_E
FNDA:0,_ZSt8_DestroyIN9__gnu_cxx17__normal_iteratorIPiSt6vectorIiSaIiEEEEiEvT_S7_RSaIT0_E
FNF:17
FNH:0
BRDA:80,9999,0,-
BRDA:80,9999,2,-
BRDA:80,9999,3,-
BRDA:80,9999,4,-
BRDA:80,9999,5,-
BRDA:80,9999,7,-
BRDA:80,9999,8,-
BRDA:80,9999,9,-
BRDA:81,9999,0,-
BRDA:89,9999,0,-
BRDA:89,9999,2,-
BRDA:98,9999,0,-
BRDA:98,9999,1,-
BRDA:98,9999,2,-
BRDA:98,9999,3,-
BRDA:99,9999,0,-
BRDA:100,9999,0,-
BRDA:108,9999,0,-
BRDA:108,9999,1,-
BRDA:108,9999,2,-
BRDA:108,9999,3,-
BRDA:122,9999,0,-
BRDA:122,9999,2,-
BRDA:122,9999,4,-
BRDA:122,9999,6,-
BRDA:122,9999,8,-
BRDA:124,9999,0,-
BRDA:124,9999,1,-
BRDA:124,9999,2,-
BRDA:124,9999,3,-
BRDA:124,9999,4,-
BRDA:148,9999,0,-
BRDA:148,9999,2,-
BRDA:148,9999,4,-
BRDA:148,9999,6,-
BRDA:148,9999,8,-
BRDA:149,9999,0,-
BRDA:149,9999,1,-
BRDA:149,9999,2,-
BRDA:149,9999,3,-
BRDA:149,9999,4,-
BRF:41
BRH:0
DA:75,0
DA:80,0
DA:81,0
DA:88,0
DA:89,0
DA:96,0
DA:98,0
DA:99,0
DA:100,0
DA:108,0
DA:118,0
DA:122,0
DA:124,0
DA:145,0
DA:148,0
DA:149,0
LF:16
LH:0
end_of_record
SF:/usr/include/c++/4.5/bits/stl_function.h
FN:229,_ZNKSt4lessImEclERKmS2_
FN:229,_ZNKSt4lessIiEclERKiS2_
FN:229,_ZNKSt4lessIPvEclERKS0_S3_
FN:475,_ZNKSt9_IdentityIiEclERKi
FN:475,_ZNKSt9_IdentityIPvEclERKS0_
FN:488,_ZNKSt10_Select1stISt4pairIKPv16_data_access_logEEclERKS4_
FN:488,_ZNKSt10_Select1stISt4pairIKmiEEclERKS2_
FNDA:0,_ZNKSt4lessIPvEclERKS0_S3_
FNDA:0,_ZNKSt4lessImEclERKmS2_
FNDA:0,_ZNKSt4lessIiEclERKiS2_
FNDA:0,_ZNKSt9_IdentityIPvEclERKS0_
FNDA:0,_ZNKSt9_IdentityIiEclERKi
FNDA:0,_ZNKSt10_Select1stISt4pairIKmiEEclERKS2_
FNDA:0,_ZNKSt10_Select1stISt4pairIKPv16_data_access_logEEclERKS4_
FNF:7
FNH:0
BRDA:230,9999,0,-
BRDA:230,9999,1,-
BRDA:230,9999,2,-
BRDA:476,9999,0,-
BRDA:476,9999,1,-
BRDA:489,9999,0,-
BRDA:489,9999,1,-
BRF:7
BRH:0
DA:229,0
DA:230,0
DA:475,0
DA:476,0
DA:488,0
DA:489,0
LF:6
LH:0
end_of_record
SF:/usr/include/c++/4.5/bits/stl_iterator.h
FN:715,_ZN9__gnu_cxx17__normal_iteratorIPPvSt6vectorIS1_SaIS1_EEEC2ERKS2_
FN:715,_ZN9__gnu_cxx17__normal_iteratorIPKPFPvS1_ESt6vectorIS3_SaIS3_EEEC2ERKS5_
FN:715,_ZN9__gnu_cxx17__normal_iteratorIPKiSt6vectorIiSaIiEEEC2ERKS2_
FN:715,_ZN9__gnu_cxx17__normal_iteratorIPK17_loop_spec_threadSt6vectorIS1_SaIS1_EEEC2ERKS3_
FN:715,_ZN9__gnu_cxx17__normal_iteratorIP17_loop_spec_threadSt6vectorIS1_SaIS1_EEEC2ERKS2_
FN:715,_ZN9__gnu_cxx17__normal_iteratorIPKPvSt6vectorIS1_SaIS1_EEEC2ERKS3_
FN:715,_ZN9__gnu_cxx17__normal_iteratorIPiSt6vectorIiSaIiEEEC2ERKS1_
FN:715,_ZN9__gnu_cxx17__normal_iteratorIPPFPvS1_ESt6vectorIS3_SaIS3_EEEC2ERKS4_
FN:727,_ZNK9__gnu_cxx17__normal_iteratorIPPvSt6vectorIS1_SaIS1_EEEdeEv
FN:727,_ZNK9__gnu_cxx17__normal_iteratorIPPFPvS1_ESt6vectorIS3_SaIS3_EEEdeEv
FN:727,_ZNK9__gnu_cxx17__normal_iteratorIPiSt6vectorIiSaIiEEEdeEv
FN:735,_ZN9__gnu_cxx17__normal_iteratorIPiSt6vectorIiSaIiEEEppEv
FN:763,_ZN9__gnu_cxx17__normal_iteratorIPiSt6vectorIiSaIiEEEpLERKi
FN:767,_ZNK9__gnu_cxx17__normal_iteratorIPiSt6vectorIiSaIiEEEplERKi
FN:767,_ZNK9__gnu_cxx17__normal_iteratorIPPvSt6vectorIS1_SaIS1_EEEplERKi
FN:779,_ZNK9__gnu_cxx17__normal_iteratorIPKiSt6vectorIiSaIiEEE4baseEv
FN:779,_ZNK9__gnu_cxx17__normal_iteratorIPPvSt6vectorIS1_SaIS1_EEE4baseEv
FN:779,_ZNK9__gnu_cxx17__normal_iteratorIPK17_loop_spec_threadSt6vectorIS1_SaIS1_EEE4baseEv
FN:779,_ZNK9__gnu_cxx17__normal_iteratorIPKPFPvS1_ESt6vectorIS3_SaIS3_EEE4baseEv
FN:779,_ZNK9__gnu_cxx17__normal_iteratorIP17_loop_spec_threadSt6vectorIS1_SaIS1_EEE4baseEv
FN:779,_ZNK9__gnu_cxx17__normal_iteratorIPPFPvS1_ESt6vectorIS3_SaIS3_EEE4baseEv
FN:779,_ZNK9__gnu_cxx17__normal_iteratorIPiSt6vectorIiSaIiEEE4baseEv
FN:779,_ZNK9__gnu_cxx17__normal_iteratorIPKPvSt6vectorIS1_SaIS1_EEE4baseEv
FN:800,_ZN9__gnu_cxxeqIPKiSt6vectorIiSaIiEEEEbRKNS_17__normal_iteratorIT_T0_EESB_
FN:800,_ZN9__gnu_cxxeqIPK17_loop_spec_threadSt6vectorIS1_SaIS1_EEEEbRKNS_17__normal_iteratorIT_T0_EESC_
FN:812,_ZN9__gnu_cxxneIPPvSt6vectorIS1_SaIS1_EEEEbRKNS_17__normal_iteratorIT_T0_EESB_
FN:812,_ZN9__gnu_cxxneIPiSt6vectorIiSaIiEEEEbRKNS_17__normal_iteratorIT_T0_EESA_
FN:885,_ZN9__gnu_cxxmiIP17_loop_spec_threadSt6vectorIS1_SaIS1_EEEENS_17__normal_iteratorIT_T0_E15difference_typeERKS9_SC_
FN:885,_ZN9__gnu_cxxmiIPiSt6vectorIiSaIiEEEENS_17__normal_iteratorIT_T0_E15difference_typeERKS8_SB_
FN:885,_ZN9__gnu_cxxmiIPPvSt6vectorIS1_SaIS1_EEEENS_17__normal_iteratorIT_T0_E15difference_typeERKS9_SC_
FN:885,_ZN9__gnu_cxxmiIPPFPvS1_ESt6vectorIS3_SaIS3_EEEENS_17__normal_iteratorIT_T0_E15difference_typeERKSB_SE_
FNDA:0,_ZN9__gnu_cxx17__normal_iteratorIPiSt6vectorIiSaIiEEEC2ERKS1_
FNDA:0,_ZN9__gnu_cxx17__normal_iteratorIPPvSt6vectorIS1_SaIS1_EEEC2ERKS2_
FNDA:0,_ZN9__gnu_cxx17__normal_iteratorIPKiSt6vectorIiSaIiEEEC2ERKS2_
FNDA:0,_ZN9__gnu_cxx17__normal_iteratorIPK17_loop_spec_threadSt6vectorIS1_SaIS1_EEEC2ERKS3_
FNDA:0,_ZN9__gnu_cxx17__normal_iteratorIP17_loop_spec_threadSt6vectorIS1_SaIS1_EEEC2ERKS2_
FNDA:0,_ZN9__gnu_cxx17__normal_iteratorIPPFPvS1_ESt6vectorIS3_SaIS3_EEEC2ERKS4_
FNDA:0,_ZN9__gnu_cxx17__normal_iteratorIPKPFPvS1_ESt6vectorIS3_SaIS3_EEEC2ERKS5_
FNDA:0,_ZN9__gnu_cxx17__normal_iteratorIPKPvSt6vectorIS1_SaIS1_EEEC2ERKS3_
FNDA:0,_ZNK9__gnu_cxx17__normal_iteratorIPiSt6vectorIiSaIiEEEdeEv
FNDA:0,_ZNK9__gnu_cxx17__normal_iteratorIPPFPvS1_ESt6vectorIS3_SaIS3_EEEdeEv
FNDA:0,_ZNK9__gnu_cxx17__normal_iteratorIPPvSt6vectorIS1_SaIS1_EEEdeEv
FNDA:0,_ZN9__gnu_cxx17__normal_iteratorIPiSt6vectorIiSaIiEEEppEv
FNDA:0,_ZN9__gnu_cxx17__normal_iteratorIPiSt6vectorIiSaIiEEEpLERKi
FNDA:0,_ZNK9__gnu_cxx17__normal_iteratorIPiSt6vectorIiSaIiEEEplERKi
FNDA:0,_ZNK9__gnu_cxx17__normal_iteratorIPPvSt6vectorIS1_SaIS1_EEEplERKi
FNDA:0,_ZNK9__gnu_cxx17__normal_iteratorIPKiSt6vectorIiSaIiEEE4baseEv
FNDA:0,_ZNK9__gnu_cxx17__normal_iteratorIPiSt6vectorIiSaIiEEE4baseEv
FNDA:0,_ZNK9__gnu_cxx17__normal_iteratorIPPvSt6vectorIS1_SaIS1_EEE4baseEv
FNDA:0,_ZNK9__gnu_cxx17__normal_iteratorIPK17_loop_spec_threadSt6vectorIS1_SaIS1_EEE4baseEv
FNDA:0,_ZNK9__gnu_cxx17__normal_iteratorIPPFPvS1_ESt6vectorIS3_SaIS3_EEE4baseEv
FNDA:0,_ZNK9__gnu_cxx17__normal_iteratorIP17_loop_spec_threadSt6vectorIS1_SaIS1_EEE4baseEv
FNDA:0,_ZNK9__gnu_cxx17__normal_iteratorIPKPFPvS1_ESt6vectorIS3_SaIS3_EEE4baseEv
FNDA:0,_ZNK9__gnu_cxx17__normal_iteratorIPKPvSt6vectorIS1_SaIS1_EEE4baseEv
FNDA:0,_ZN9__gnu_cxxeqIPKiSt6vectorIiSaIiEEEEbRKNS_17__normal_iteratorIT_T0_EESB_
FNDA:0,_ZN9__gnu_cxxeqIPK17_loop_spec_threadSt6vectorIS1_SaIS1_EEEEbRKNS_17__normal_iteratorIT_T0_EESC_
FNDA:0,_ZN9__gnu_cxxneIPiSt6vectorIiSaIiEEEEbRKNS_17__normal_iteratorIT_T0_EESA_
FNDA:0,_ZN9__gnu_cxxneIPPvSt6vectorIS1_SaIS1_EEEEbRKNS_17__normal_iteratorIT_T0_EESB_
FNDA:0,_ZN9__gnu_cxxmiIPiSt6vectorIiSaIiEEEENS_17__normal_iteratorIT_T0_E15difference_typeERKS8_SB_
FNDA:0,_ZN9__gnu_cxxmiIPPFPvS1_ESt6vectorIS3_SaIS3_EEEENS_17__normal_iteratorIT_T0_E15difference_typeERKSB_SE_
FNDA:0,_ZN9__gnu_cxxmiIPPvSt6vectorIS1_SaIS1_EEEENS_17__normal_iteratorIT_T0_E15difference_typeERKS9_SC_
FNDA:0,_ZN9__gnu_cxxmiIP17_loop_spec_threadSt6vectorIS1_SaIS1_EEEENS_17__normal_iteratorIT_T0_E15difference_typeERKS9_SC_
FNF:31
FNH:0
BRDA:715,9999,0,-
BRDA:715,9999,1,-
BRDA:715,9999,2,-
BRDA:715,9999,3,-
BRDA:715,9999,4,-
BRDA:715,9999,5,-
BRDA:715,9999,6,-
BRDA:715,9999,7,-
BRDA:728,9999,0,-
BRDA:728,9999,1,-
BRDA:728,9999,2,-
BRDA:738,9999,0,-
BRDA:764,9999,0,-
BRDA:768,9999,0,-
BRDA:768,9999,2,-
BRDA:768,9999,3,-
BRDA:768,9999,5,-
BRDA:780,9999,0,-
BRDA:780,9999,1,-
BRDA:780,9999,2,-
BRDA:780,9999,3,-
BRDA:780,9999,4,-
BRDA:780,9999,5,-
BRDA:780,9999,6,-
BRDA:780,9999,7,-
BRDA:802,9999,0,-
BRDA:802,9999,2,-
BRDA:802,9999,4,-
BRDA:802,9999,5,-
BRDA:802,9999,7,-
BRDA:802,9999,9,-
BRDA:814,9999,0,-
BRDA:814,9999,2,-
BRDA:814,9999,4,-
BRDA:814,9999,5,-
BRDA:814,9999,7,-
BRDA:814,9999,9,-
BRDA:887,9999,0,-
BRDA:887,9999,2,-
BRDA:887,9999,4,-
BRDA:887,9999,5,-
BRDA:887,9999,7,-
BRDA:887,9999,9,-
BRDA:887,9999,10,-
BRDA:887,9999,12,-
BRDA:887,9999,14,-
BRDA:887,9999,15,-
BRDA:887,9999,17,-
BRDA:887,9999,19,-
BRF:49
BRH:0
DA:715,0
DA:727,0
DA:728,0
DA:735,0
DA:737,0
DA:738,0
DA:763,0
DA:764,0
DA:767,0
DA:768,0
DA:779,0
DA:780,0
DA:800,0
DA:802,0
DA:812,0
DA:814,0
DA:885,0
DA:887,0
LF:18
LH:0
end_of_record
SF:/usr/include/c++/4.5/bits/stl_iterator_base_funcs.h
FN:71,_ZSt10__distanceISt23_Rb_tree_const_iteratorIiEENSt15iterator_traitsIT_E15difference_typeES3_S3_St18input_iterator_tag
FN:88,_ZSt10__distanceIN9__gnu_cxx17__normal_iteratorIPiSt6vectorIiSaIiEEEEENSt15iterator_traitsIT_E15difference_typeES8_S8_St26random_access_iterator_tag
FN:111,_ZSt8distanceIN9__gnu_cxx17__normal_iteratorIPiSt6vectorIiSaIiEEEEENSt15iterator_traitsIT_E15difference_typeES8_S8_
FN:111,_ZSt8distanceISt23_Rb_tree_const_iteratorIiEENSt15iterator_traitsIT_E15difference_typeES3_S3_
FN:130,_ZSt9__advanceISt23_Rb_tree_const_iteratorIiEiEvRT_T0_St26bidirectional_iterator_tag
FN:146,_ZSt9__advanceIN9__gnu_cxx17__normal_iteratorIPiSt6vectorIiSaIiEEEEiEvRT_T0_St26random_access_iterator_tag
FN:169,_ZSt7advanceISt23_Rb_tree_const_iteratorIiEjEvRT_T0_
FN:169,_ZSt7advanceIN9__gnu_cxx17__normal_iteratorIPiSt6vectorIiSaIiEEEEjEvRT_T0_
FNDA:0,_ZSt10__distanceISt23_Rb_tree_const_iteratorIiEENSt15iterator_traitsIT_E15difference_typeES3_S3_St18input_iterator_tag
FNDA:0,_ZSt10__distanceIN9__gnu_cxx17__normal_iteratorIPiSt6vectorIiSaIiEEEEENSt15iterator_traitsIT_E15difference_typeES8_S8_St26random_access_iterator_tag
FNDA:0,_ZSt8distanceISt23_Rb_tree_const_iteratorIiEENSt15iterator_traitsIT_E15difference_typeES3_S3_
FNDA:0,_ZSt8distanceIN9__gnu_cxx17__normal_iteratorIPiSt6vectorIiSaIiEEEEENSt15iterator_traitsIT_E15difference_typeES8_S8_
FNDA:0,_ZSt9__advanceISt23_Rb_tree_const_iteratorIiEiEvRT_T0_St26bidirectional_iterator_tag
FNDA:0,_ZSt9__advanceIN9__gnu_cxx17__normal_iteratorIPiSt6vectorIiSaIiEEEEiEvRT_T0_St26random_access_iterator_tag
FNDA:0,_ZSt7advanceISt23_Rb_tree_const_iteratorIiEjEvRT_T0_
FNDA:0,_ZSt7advanceIN9__gnu_cxx17__normal_iteratorIPiSt6vectorIiSaIiEEEEjEvRT_T0_
FNF:8
FNH:0
BRDA:78,9999,0,-
BRDA:78,9999,1,-
BRDA:78,9999,3,-
BRDA:78,9999,4,-
BRDA:80,9999,0,-
BRDA:81,9999,0,-
BRDA:83,9999,0,-
BRDA:94,9999,0,-
BRDA:94,9999,2,-
BRDA:115,9999,0,-
BRDA:115,9999,2,-
BRDA:115,9999,4,-
BRDA:115,9999,5,-
BRDA:115,9999,7,-
BRDA:115,9999,9,-
BRDA:136,9999,0,-
BRDA:136,9999,1,-
BRDA:137,9999,0,-
BRDA:137,9999,1,-
BRDA:137,9999,2,-
BRDA:138,9999,0,-
BRDA:140,9999,0,-
BRDA:140,9999,1,-
BRDA:140,9999,2,-
BRDA:141,9999,0,-
BRDA:142,9999,0,-
BRDA:152,9999,0,-
BRDA:153,9999,0,-
BRDA:173,9999,0,-
BRDA:173,9999,2,-
BRDA:173,9999,4,-
BRDA:173,9999,6,-
BRDA:174,9999,0,-
BRDA:174,9999,1,-
BRF:34
BRH:0
DA:71,0
DA:77,0
DA:78,0
DA:80,0
DA:81,0
DA:83,0
DA:88,0
DA:94,0
DA:111,0
DA:115,0
DA:130,0
DA:136,0
DA:137,0
DA:138,0
DA:140,0
DA:141,0
DA:142,0
DA:146,0
DA:152,0
DA:153,0
DA:169,0
DA:172,0
DA:173,0
DA:174,0
LF:24
LH:0
end_of_record
SF:/usr/include/c++/4.5/bits/stl_iterator_base_types.h
FN:174,_ZSt19__iterator_categoryIN9__gnu_cxx17__normal_iteratorIPiSt6vectorIiSaIiEEEEENSt15iterator_traitsIT_E17iterator_categoryERKS8_
FN:174,_ZSt19__iterator_categoryISt23_Rb_tree_const_iteratorIiEENSt15iterator_traitsIT_E17iterator_categoryERKS3_
FNDA:0,_ZSt19__iterator_categoryISt23_Rb_tree_const_iteratorIiEENSt15iterator_traitsIT_E17iterator_categoryERKS3_
FNDA:0,_ZSt19__iterator_categoryIN9__gnu_cxx17__normal_iteratorIPiSt6vectorIiSaIiEEEEENSt15iterator_traitsIT_E17iterator_categoryERKS8_
FNF:2
FNH:0
BRDA:175,9999,0,-
BRDA:175,9999,1,-
BRF:2
BRH:0
DA:174,0
DA:175,0
LF:2
LH:0
end_of_record
SF:/usr/include/c++/4.5/bits/stl_map.h
FN:87,_ZNSt3mapIPv16_data_access_logSt4lessIS0_ESaISt4pairIKS0_S1_EEED2Ev
FN:87,_ZNSt3mapImiSt4lessImESaISt4pairIKmiEEED2Ev
FN:150,_ZNSt3mapIPv16_data_access_logSt4lessIS0_ESaISt4pairIKS0_S1_EEEC2Ev
FN:150,_ZNSt3mapImiSt4lessImESaISt4pairIKmiEEEC2Ev
FN:307,_ZNSt3mapImiSt4lessImESaISt4pairIKmiEEE5beginEv
FN:325,_ZNSt3mapImiSt4lessImESaISt4pairIKmiEEE3endEv
FN:325,_ZNSt3mapIPv16_data_access_logSt4lessIS0_ESaISt4pairIKS0_S1_EEE3endEv
FN:416,_ZNKSt3mapImiSt4lessImESaISt4pairIKmiEEE5emptyEv
FN:416,_ZNKSt3mapIPv16_data_access_logSt4lessIS0_ESaISt4pairIKS0_S1_EEE5emptyEv
FN:443,_ZNSt3mapImiSt4lessImESaISt4pairIKmiEEEixERS3_
FN:500,_ZNSt3mapImiSt4lessImESaISt4pairIKmiEEE6insertERKS4_
FN:500,_ZNSt3mapIPv16_data_access_logSt4lessIS0_ESaISt4pairIKS0_S1_EEE6insertERKS6_
FN:540,_ZNSt3mapImiSt4lessImESaISt4pairIKmiEEE6insertESt17_Rb_tree_iteratorIS4_ERKS4_
FN:663,_ZNSt3mapIPv16_data_access_logSt4lessIS0_ESaISt4pairIKS0_S1_EEE5clearEv
FN:663,_ZNSt3mapImiSt4lessImESaISt4pairIKmiEEE5clearEv
FN:672,_ZNKSt3mapImiSt4lessImESaISt4pairIKmiEEE8key_compEv
FN:696,_ZNSt3mapIPv16_data_access_logSt4lessIS0_ESaISt4pairIKS0_S1_EEE4findERS5_
FN:696,_ZNSt3mapImiSt4lessImESaISt4pairIKmiEEE4findERS3_
FN:738,_ZNSt3mapImiSt4lessImESaISt4pairIKmiEEE11lower_boundERS3_
FNDA:0,_ZNSt3mapImiSt4lessImESaISt4pairIKmiEEED2Ev
FNDA:0,_ZNSt3mapIPv16_data_access_logSt4lessIS0_ESaISt4pairIKS0_S1_EEED2Ev
FNDA:0,_ZNSt3mapImiSt4lessImESaISt4pairIKmiEEEC2Ev
FNDA:0,_ZNSt3mapIPv16_data_access_logSt4lessIS0_ESaISt4pairIKS0_S1_EEEC2Ev
FNDA:0,_ZNSt3mapImiSt4lessImESaISt4pairIKmiEEE5beginEv
FNDA:0,_ZNSt3mapImiSt4lessImESaISt4pairIKmiEEE3endEv
FNDA:0,_ZNSt3mapIPv16_data_access_logSt4lessIS0_ESaISt4pairIKS0_S1_EEE3endEv
FNDA:0,_ZNKSt3mapImiSt4lessImESaISt4pairIKmiEEE5emptyEv
FNDA:0,_ZNKSt3mapIPv16_data_access_logSt4lessIS0_ESaISt4pairIKS0_S1_EEE5emptyEv
FNDA:0,_ZNSt3mapImiSt4lessImESaISt4pairIKmiEEEixERS3_
FNDA:0,_ZNSt3mapImiSt4lessImESaISt4pairIKmiEEE6insertERKS4_
FNDA:0,_ZNSt3mapIPv16_data_access_logSt4lessIS0_ESaISt4pairIKS0_S1_EEE6insertERKS6_
FNDA:0,_ZNSt3mapImiSt4lessImESaISt4pairIKmiEEE6insertESt17_Rb_tree_iteratorIS4_ERKS4_
FNDA:0,_ZNSt3mapImiSt4lessImESaISt4pairIKmiEEE5clearEv
FNDA:0,_ZNSt3mapIPv16_data_access_logSt4lessIS0_ESaISt4pairIKS0_S1_EEE5clearEv
FNDA:0,_ZNKSt3mapImiSt4lessImESaISt4pairIKmiEEE8key_compEv
FNDA:0,_ZNSt3mapImiSt4lessImESaISt4pairIKmiEEE4findERS3_
FNDA:0,_ZNSt3mapIPv16_data_access_logSt4lessIS0_ESaISt4pairIKS0_S1_EEE4findERS5_
FNDA:0,_ZNSt3mapImiSt4lessImESaISt4pairIKmiEEE11lower_boundERS3_
FNF:19
FNH:0
BRDA:87,9999,0,-
BRDA:87,9999,2,-
BRDA:87,9999,3,-
BRDA:87,9999,5,-
BRDA:151,9999,0,-
BRDA:151,9999,2,-
BRDA:151,9999,3,-
BRDA:151,9999,5,-
BRDA:308,9999,0,-
BRDA:308,9999,2,-
BRDA:326,9999,0,-
BRDA:326,9999,2,-
BRDA:326,9999,3,-
BRDA:326,9999,5,-
BRDA:417,9999,0,-
BRDA:417,9999,2,-
BRDA:417,9999,3,-
BRDA:417,9999,5,-
BRDA:448,9999,0,-
BRDA:450,9999,0,-
BRDA:450,9999,2,-
BRDA:450,9999,4,-
BRDA:450,9999,5,-
BRDA:450,9999,6,-
BRDA:450,9999,8,-
BRDA:450,9999,10,-
BRDA:450,9999,12,-
BRDA:450,9999,13,-
BRDA:450,9999,14,-
BRDA:450,9999,15,-
BRDA:450,9999,16,-
BRDA:450,9999,17,-
BRDA:451,9999,0,-
BRDA:451,9999,2,-
BRDA:452,9999,0,-
BRDA:452,9999,2,-
BRDA:501,9999,0,-
BRDA:501,9999,2,-
BRDA:501,9999,3,-
BRDA:501,9999,5,-
BRDA:541,9999,0,-
BRDA:541,9999,2,-
BRDA:541,9999,4,-
BRDA:664,9999,0,-
BRDA:664,9999,2,-
BRDA:664,9999,3,-
BRDA:664,9999,5,-
BRDA:673,9999,0,-
BRDA:673,9999,2,-
BRDA:697,9999,0,-
BRDA:697,9999,2,-
BRDA:697,9999,3,-
BRDA:697,9999,5,-
BRDA:739,9999,0,-
BRDA:739,9999,2,-
BRF:55
BRH:0
DA:87,0
DA:150,0
DA:151,0
DA:307,0
DA:308,0
DA:325,0
DA:326,0
DA:416,0
DA:417,0
DA:443,0
DA:448,0
DA:450,0
DA:451,0
DA:452,0
DA:500,0
DA:501,0
DA:540,0
DA:541,0
DA:663,0
DA:664,0
DA:672,0
DA:673,0
DA:696,0
DA:697,0
DA:738,0
DA:739,0
LF:26
LH:0
end_of_record
SF:/usr/include/c++/4.5/bits/stl_pair.h
FN:72,_ZNSt4pairIKmiED2Ev
FN:72,_ZNSt4pairIKPv16_data_access_logED2Ev
FN:72,_ZNSt4pairIKPv16_data_access_logEC2ERKS3_
FN:72,_ZNSt4pairIPv16_data_access_logED2Ev
FN:87,_ZNSt4pairISt17_Rb_tree_iteratorIiEbEC2ERKS1_RKb
FN:87,_ZNSt4pairISt17_Rb_tree_iteratorIS_IKPv16_data_access_logEEbEC2ERKS5_RKb
FN:87,_ZNSt4pairIKmiEC2ERS0_RKi
FN:87,_ZNSt4pairIPv16_data_access_logEC2ERKS0_RKS1_
FN:87,_ZNSt4pairISt17_Rb_tree_iteratorIS_IKmiEEbEC2ERKS3_RKb
FN:87,_ZNSt4pairISt23_Rb_tree_const_iteratorIPvEbEC2ERKS2_RKb
FN:87,_ZNSt4pairImiEC2ERKmRKi
FN:87,_ZNSt4pairISt17_Rb_tree_iteratorIPvEbEC2ERKS2_RKb
FN:87,_ZNSt4pairISt23_Rb_tree_const_iteratorIiEbEC2ERKS1_RKb
FN:87,_ZNSt4pairISt17_Rb_tree_iteratorIiES1_EC2ERKS1_S4_
FN:114,_ZNSt4pairIKPv16_data_access_logEC2IS0_S2_EERKS_IT_T0_E
FN:114,_ZNSt4pairIKmiEC2ImiEERKS_IT_T0_E
FNDA:0,_ZNSt4pairIKmiED2Ev
FNDA:0,_ZNSt4pairIKPv16_data_access_logED2Ev
FNDA:0,_ZNSt4pairIPv16_data_access_logED2Ev
FNDA:0,_ZNSt4pairIKPv16_data_access_logEC2ERKS3_
FNDA:0,_ZNSt4pairImiEC2ERKmRKi
FNDA:0,_ZNSt4pairIKmiEC2ERS0_RKi
FNDA:0,_ZNSt4pairISt23_Rb_tree_const_iteratorIPvEbEC2ERKS2_RKb
FNDA:0,_ZNSt4pairISt23_Rb_tree_const_iteratorIiEbEC2ERKS1_RKb
FNDA:0,_ZNSt4pairISt17_Rb_tree_iteratorIPvEbEC2ERKS2_RKb
FNDA:0,_ZNSt4pairISt17_Rb_tree_iteratorIiEbEC2ERKS1_RKb
FNDA:0,_ZNSt4pairISt17_Rb_tree_iteratorIS_IKmiEEbEC2ERKS3_RKb
FNDA:0,_ZNSt4pairISt17_Rb_tree_iteratorIiES1_EC2ERKS1_S4_
FNDA:0,_ZNSt4pairISt17_Rb_tree_iteratorIS_IKPv16_data_access_logEEbEC2ERKS5_RKb
FNDA:0,_ZNSt4pairIPv16_data_access_logEC2ERKS0_RKS1_
FNDA:0,_ZNSt4pairIKmiEC2ImiEERKS_IT_T0_E
FNDA:0,_ZNSt4pairIKPv16_data_access_logEC2IS0_S2_EERKS_IT_T0_E
FNF:16
FNH:0
BRDA:72,9999,0,-
BRDA:72,9999,1,-
BRDA:72,9999,3,-
BRDA:72,9999,4,-
BRDA:72,9999,6,-
BRDA:72,9999,7,-
BRDA:72,9999,9,-
BRDA:88,9999,0,-
BRDA:88,9999,1,-
BRDA:88,9999,2,-
BRDA:88,9999,3,-
BRDA:88,9999,4,-
BRDA:88,9999,5,-
BRDA:88,9999,6,-
BRDA:88,9999,7,-
BRDA:88,9999,8,-
BRDA:88,9999,9,-
BRDA:88,9999,11,-
BRDA:116,9999,0,-
BRDA:116,9999,1,-
BRDA:116,9999,3,-
BRF:21
BRH:0
DA:72,0
DA:87,0
DA:88,0
DA:114,0
DA:116,0
LF:5
LH:0
end_of_record
SF:/usr/include/c++/4.5/bits/stl_set.h
FN:88,_ZNSt3setIiSt4lessIiESaIiEED2Ev
FN:88,_ZNSt3setIPvSt4lessIS0_ESaIS0_EED2Ev
FN:136,_ZNSt3setIiSt4lessIiESaIiEEC2Ev
FN:136,_ZNSt3setIPvSt4lessIS0_ESaIS0_EEC2Ev
FN:188,_ZNSt3setIiSt4lessIiESaIiEEC2ERKS3_
FN:188,_ZNSt3setIPvSt4lessIS0_ESaIS0_EEC2ERKS4_
FN:227,_ZNSt3setIPvSt4lessIS0_ESaIS0_EEaSERKS4_
FN:292,_ZNKSt3setIiSt4lessIiESaIiEE5beginEv
FN:292,_ZNKSt3setIPvSt4lessIS0_ESaIS0_EE5beginEv
FN:301,_ZNKSt3setIPvSt4lessIS0_ESaIS0_EE3endEv
FN:301,_ZNKSt3setIiSt4lessIiESaIiEE3endEv
FN:362,_ZNKSt3setIiSt4lessIiESaIiEE5emptyEv
FN:367,_ZNKSt3setIiSt4lessIiESaIiEE4sizeEv
FN:405,_ZNSt3setIiSt4lessIiESaIiEE6insertERKi
FN:405,_ZNSt3setIPvSt4lessIS0_ESaIS0_EE6insertERKS0_
FN:446,_ZNSt3setIiSt4lessIiESaIiEE6insertIN9__gnu_cxx17__normal_iteratorIPiSt6vectorIiS2_EEEEEvT_SB_
FN:507,_ZNSt3setIiSt4lessIiESaIiEE5eraseERKi
FN:552,_ZNSt3setIPvSt4lessIS0_ESaIS0_EE5clearEv
FN:584,_ZNSt3setIPvSt4lessIS0_ESaIS0_EE4findERKS0_
FN:584,_ZNSt3setIiSt4lessIiESaIiEE4findERKi
FNDA:0,_ZNSt3setIiSt4lessIiESaIiEED2Ev
FNDA:0,_ZNSt3setIPvSt4lessIS0_ESaIS0_EED2Ev
FNDA:0,_ZNSt3setIPvSt4lessIS0_ESaIS0_EEC2Ev
FNDA:0,_ZNSt3setIiSt4lessIiESaIiEEC2Ev
FNDA:0,_ZNSt3setIPvSt4lessIS0_ESaIS0_EEC2ERKS4_
FNDA:0,_ZNSt3setIiSt4lessIiESaIiEEC2ERKS3_
FNDA:0,_ZNSt3setIPvSt4lessIS0_ESaIS0_EEaSERKS4_
FNDA:0,_ZNKSt3setIPvSt4lessIS0_ESaIS0_EE5beginEv
FNDA:0,_ZNKSt3setIiSt4lessIiESaIiEE5beginEv
FNDA:0,_ZNKSt3setIPvSt4lessIS0_ESaIS0_EE3endEv
FNDA:0,_ZNKSt3setIiSt4lessIiESaIiEE3endEv
FNDA:0,_ZNKSt3setIiSt4lessIiESaIiEE5emptyEv
FNDA:0,_ZNKSt3setIiSt4lessIiESaIiEE4sizeEv
FNDA:0,_ZNSt3setIPvSt4lessIS0_ESaIS0_EE6insertERKS0_
FNDA:0,_ZNSt3setIiSt4lessIiESaIiEE6insertERKi
FNDA:0,_ZNSt3setIiSt4lessIiESaIiEE6insertIN9__gnu_cxx17__normal_iteratorIPiSt6vectorIiS2_EEEEEvT_SB_
FNDA:0,_ZNSt3setIiSt4lessIiESaIiEE5eraseERKi
FNDA:0,_ZNSt3setIPvSt4lessIS0_ESaIS0_EE5clearEv
FNDA:0,_ZNSt3setIPvSt4lessIS0_ESaIS0_EE4findERKS0_
FNDA:0,_ZNSt3setIiSt4lessIiESaIiEE4findERKi
FNF:20
FNH:0
BRDA:88,9999,0,-
BRDA:88,9999,2,-
BRDA:88,9999,3,-
BRDA:88,9999,5,-
BRDA:137,9999,0,-
BRDA:137,9999,2,-
BRDA:137,9999,3,-
BRDA:137,9999,5,-
BRDA:189,9999,0,-
BRDA:189,9999,2,-
BRDA:189,9999,3,-
BRDA:189,9999,5,-
BRDA:229,9999,0,-
BRDA:230,9999,0,-
BRDA:293,9999,0,-
BRDA:293,9999,2,-
BRDA:293,9999,3,-
BRDA:293,9999,5,-
BRDA:302,9999,0,-
BRDA:302,9999,2,-
BRDA:302,9999,3,-
BRDA:302,9999,5,-
BRDA:363,9999,0,-
BRDA:363,9999,2,-
BRDA:368,9999,0,-
BRDA:368,9999,2,-
BRDA:408,9999,0,-
BRDA:408,9999,2,-
BRDA:409,9999,0,-
BRDA:409,9999,2,-
BRDA:409,9999,4,-
BRDA:409,9999,5,-
BRDA:409,9999,7,-
BRDA:409,9999,9,-
BRDA:447,9999,0,-
BRDA:447,9999,2,-
BRDA:508,9999,0,-
BRDA:508,9999,2,-
BRDA:553,9999,0,-
BRDA:553,9999,2,-
BRDA:585,9999,0,-
BRDA:585,9999,2,-
BRDA:585,9999,4,-
BRDA:585,9999,5,-
BRDA:585,9999,7,-
BRDA:585,9999,9,-
BRF:46
BRH:0
DA:88,0
DA:136,0
DA:137,0
DA:188,0
DA:189,0
DA:227,0
DA:229,0
DA:230,0
DA:292,0
DA:293,0
DA:301,0
DA:302,0
DA:362,0
DA:363,0
DA:367,0
DA:368,0
DA:405,0
DA:408,0
DA:409,0
DA:446,0
DA:447,0
DA:507,0
DA:508,0
DA:552,0
DA:553,0
DA:584,0
DA:585,0
LF:27
LH:0
end_of_record
SF:/usr/include/c++/4.5/bits/stl_tree.h
FN:98,_ZNSt18_Rb_tree_node_base10_S_minimumEPS_
FN:112,_ZNSt18_Rb_tree_node_base10_S_maximumEPS_
FN:166,_ZNSt17_Rb_tree_iteratorISt4pairIKmiEEC2Ev
FN:170,_ZNSt17_Rb_tree_iteratorIPvEC2EPSt13_Rb_tree_nodeIS0_E
FN:170,_ZNSt17_Rb_tree_iteratorISt4pairIKmiEEC2EPSt13_Rb_tree_nodeIS2_E
FN:170,_ZNSt17_Rb_tree_iteratorIiEC2EPSt13_Rb_tree_nodeIiE
FN:170,_ZNSt17_Rb_tree_iteratorISt4pairIKPv16_data_access_logEEC2EPSt13_Rb_tree_nodeIS4_E
FN:174,_ZNKSt17_Rb_tree_iteratorISt4pairIKmiEEdeEv
FN:178,_ZNKSt17_Rb_tree_iteratorISt4pairIKmiEEptEv
FN:178,_ZNKSt17_Rb_tree_iteratorISt4pairIKPv16_data_access_logEEptEv
FN:189,_ZNSt17_Rb_tree_iteratorIiEppEi
FN:189,_ZNSt17_Rb_tree_iteratorISt4pairIKmiEEppEi
FN:197,_ZNSt17_Rb_tree_iteratorIPvEmmEv
FN:197,_ZNSt17_Rb_tree_iteratorISt4pairIKPv16_data_access_logEEmmEv
FN:197,_ZNSt17_Rb_tree_iteratorISt4pairIKmiEEmmEv
FN:197,_ZNSt17_Rb_tree_iteratorIiEmmEv
FN:212,_ZNKSt17_Rb_tree_iteratorISt4pairIKmiEEeqERKS3_
FN:212,_ZNKSt17_Rb_tree_iteratorISt4pairIKPv16_data_access_logEEeqERKS5_
FN:212,_ZNKSt17_Rb_tree_iteratorIPvEeqERKS1_
FN:212,_ZNKSt17_Rb_tree_iteratorIiEeqERKS0_
FN:216,_ZNKSt17_Rb_tree_iteratorISt4pairIKmiEEneERKS3_
FN:216,_ZNKSt17_Rb_tree_iteratorIiEneERKS0_
FN:238,_ZNSt23_Rb_tree_const_iteratorIiEC2Ev
FN:238,_ZNSt23_Rb_tree_const_iteratorIPvEC2Ev
FN:242,_ZNSt23_Rb_tree_const_iteratorIPvEC2EPKSt13_Rb_tree_nodeIS0_E
FN:242,_ZNSt23_Rb_tree_const_iteratorIiEC2EPKSt13_Rb_tree_nodeIiE
FN:245,_ZNSt23_Rb_tree_const_iteratorIPvEC2ERKSt17_Rb_tree_iteratorIS0_E
FN:245,_ZNSt23_Rb_tree_const_iteratorISt4pairIKmiEEC2ERKSt17_Rb_tree_iteratorIS2_E
FN:245,_ZNSt23_Rb_tree_const_iteratorIiEC2ERKSt17_Rb_tree_iteratorIiE
FN:249,_ZNKSt23_Rb_tree_const_iteratorIiEdeEv
FN:249,_ZNKSt23_Rb_tree_const_iteratorIPvEdeEv
FN:257,_ZNSt23_Rb_tree_const_iteratorISt4pairIKmiEEppEv
FN:257,_ZNSt23_Rb_tree_const_iteratorIiEppEv
FN:264,_ZNSt23_Rb_tree_const_iteratorIiEppEi
FN:264,_ZNSt23_Rb_tree_const_iteratorIPvEppEi
FN:272,_ZNSt23_Rb_tree_const_iteratorISt4pairIKmiEEmmEv
FN:272,_ZNSt23_Rb_tree_const_iteratorIiEmmEv
FN:287,_ZNKSt23_Rb_tree_const_iteratorIiEeqERKS0_
FN:287,_ZNKSt23_Rb_tree_const_iteratorIPvEeqERKS1_
FN:291,_ZNKSt23_Rb_tree_const_iteratorIiEneERKS0_
FN:291,_ZNKSt23_Rb_tree_const_iteratorIPvEneERKS1_
FN:349,_ZNKSt8_Rb_treeIPvSt4pairIKS0_16_data_access_logESt10_Select1stIS4_ESt4lessIS0_ESaIS4_EE21_M_get_Node_allocatorEv
FN:349,_ZNKSt8_Rb_treeImSt4pairIKmiESt10_Select1stIS2_ESt4lessImESaIS2_EE21_M_get_Node_allocatorEv
FN:349,_ZNKSt8_Rb_treeIPvS0_St9_IdentityIS0_ESt4lessIS0_ESaIS0_EE21_M_get_Node_allocatorEv
FN:349,_ZNKSt8_Rb_treeIiiSt9_IdentityIiESt4lessIiESaIiEE21_M_get_Node_allocatorEv
FN:353,_ZNKSt8_Rb_treeIPvSt4pairIKS0_16_data_access_logESt10_Select1stIS4_ESt4lessIS0_ESaIS4_EE13get_allocatorEv
FN:353,_ZNKSt8_Rb_treeImSt4pairIKmiESt10_Select1stIS2_ESt4lessImESaIS2_EE13get_allocatorEv
FN:353,_ZNKSt8_Rb_treeIiiSt9_IdentityIiESt4lessIiESaIiEE13get_allocatorEv
FN:353,_ZNKSt8_Rb_treeIPvS0_St9_IdentityIS0_ESt4lessIS0_ESaIS0_EE13get_allocatorEv
FN:358,_ZNSt8_Rb_treeIPvSt4pairIKS0_16_data_access_logESt10_Select1stIS4_ESt4lessIS0_ESaIS4_EE11_M_get_nodeEv
FN:358,_ZNSt8_Rb_treeIiiSt9_IdentityIiESt4lessIiESaIiEE11_M_get_nodeEv
FN:358,_ZNSt8_Rb_treeIPvS0_St9_IdentityIS0_ESt4lessIS0_ESaIS0_EE11_M_get_nodeEv
FN:358,_ZNSt8_Rb_treeImSt4pairIKmiESt10_Select1stIS2_ESt4lessImESaIS2_EE11_M_get_nodeEv
FN:362,_ZNSt8_Rb_treeImSt4pairIKmiESt10_Select1stIS2_ESt4lessImESaIS2_EE11_M_put_nodeEPSt13_Rb_tree_nodeIS2_E
FN:362,_ZNSt8_Rb_treeIiiSt9_IdentityIiESt4lessIiESaIiEE11_M_put_nodeEPSt13_Rb_tree_nodeIiE
FN:362,_ZNSt8_Rb_treeIPvSt4pairIKS0_16_data_access_logESt10_Select1stIS4_ESt4lessIS0_ESaIS4_EE11_M_put_nodeEPSt13_Rb_tree_nodeIS4_E
FN:362,_ZNSt8_Rb_treeIPvS0_St9_IdentityIS0_ESt4lessIS0_ESaIS0_EE11_M_put_nodeEPSt13_Rb_tree_nodeIS0_E
FN:367,_ZNSt8_Rb_treeImSt4pairIKmiESt10_Select1stIS2_ESt4lessImESaIS2_EE14_M_create_nodeERKS2_
FN:367,_ZNSt8_Rb_treeIiiSt9_IdentityIiESt4lessIiESaIiEE14_M_create_nodeERKi
FN:367,_ZNSt8_Rb_treeIPvSt4pairIKS0_16_data_access_logESt10_Select1stIS4_ESt4lessIS0_ESaIS4_EE14_M_create_nodeERKS4_
FN:367,_ZNSt8_Rb_treeIPvS0_St9_IdentityIS0_ESt4lessIS0_ESaIS0_EE14_M_create_nodeERKS0_
FN:381,_ZNSt8_Rb_treeIPvS0_St9_IdentityIS0_ESt4lessIS0_ESaIS0_EE15_M_destroy_nodeEPSt13_Rb_tree_nodeIS0_E
FN:381,_ZNSt8_Rb_treeIPvSt4pairIKS0_16_data_access_logESt10_Select1stIS4_ESt4lessIS0_ESaIS4_EE15_M_destroy_nodeEPSt13_Rb_tree_nodeIS4_E
FN:381,_ZNSt8_Rb_treeIiiSt9_IdentityIiESt4lessIiESaIiEE15_M_destroy_nodeEPSt13_Rb_tree_nodeIiE
FN:381,_ZNSt8_Rb_treeImSt4pairIKmiESt10_Select1stIS2_ESt4lessImESaIS2_EE15_M_destroy_nodeEPSt13_Rb_tree_nodeIS2_E
FN:414,_ZNSt8_Rb_treeIPvS0_St9_IdentityIS0_ESt4lessIS0_ESaIS0_EE13_M_clone_nodeEPKSt13_Rb_tree_nodeIS0_E
FN:414,_ZNSt8_Rb_treeIiiSt9_IdentityIiESt4lessIiESaIiEE13_M_clone_nodeEPKSt13_Rb_tree_nodeIiE
FN:427,_ZNSt8_Rb_treeImSt4pairIKmiESt10_Select1stIS2_ESt4lessImESaIS2_EE13_Rb_tree_implIS6_Lb0EED2Ev
FN:427,_ZNSt8_Rb_treeIPvS0_St9_IdentityIS0_ESt4lessIS0_ESaIS0_EE13_Rb_tree_implIS4_Lb0EED2Ev
FN:427,_ZNSt8_Rb_treeIPvSt4pairIKS0_16_data_access_logESt10_Select1stIS4_ESt4lessIS0_ESaIS4_EE13_Rb_tree_implIS8_Lb0EED2Ev
FN:427,_ZNSt8_Rb_treeIiiSt9_IdentityIiESt4lessIiESaIiEE13_Rb_tree_implIS3_Lb0EED2Ev
FN:432,_ZNSt8_Rb_treeImSt4pairIKmiESt10_Select1stIS2_ESt4lessImESaIS2_EE13_Rb_tree_implIS6_Lb0EEC2Ev
FN:432,_ZNSt8_Rb_treeIiiSt9_IdentityIiESt4lessIiESaIiEE13_Rb_tree_implIS3_Lb0EEC2Ev
FN:432,_ZNSt8_Rb_treeIPvSt4pairIKS0_16_data_access_logESt10_Select1stIS4_ESt4lessIS0_ESaIS4_EE13_Rb_tree_implIS8_Lb0EEC2Ev
FN:432,_ZNSt8_Rb_treeIPvS0_St9_IdentityIS0_ESt4lessIS0_ESaIS0_EE13_Rb_tree_implIS4_Lb0EEC2Ev
FN:437,_ZNSt8_Rb_treeIPvS0_St9_IdentityIS0_ESt4lessIS0_ESaIS0_EE13_Rb_tree_implIS4_Lb0EEC2ERKS4_RKSaISt13_Rb_tree_nodeIS0_EE
FN:437,_ZNSt8_Rb_treeIiiSt9_IdentityIiESt4lessIiESaIiEE13_Rb_tree_implIS3_Lb0EEC2ERKS3_RKSaISt13_Rb_tree_nodeIiEE
FN:444,_ZNSt8_Rb_treeImSt4pairIKmiESt10_Select1stIS2_ESt4lessImESaIS2_EE13_Rb_tree_implIS6_Lb0EE13_M_initializeEv
FN:444,_ZNSt8_Rb_treeIPvSt4pairIKS0_16_data_access_logESt10_Select1stIS4_ESt4lessIS0_ESaIS4_EE13_Rb_tree_implIS8_Lb0EE13_M_initializeEv
FN:444,_ZNSt8_Rb_treeIiiSt9_IdentityIiESt4lessIiESaIiEE13_Rb_tree_implIS3_Lb0EE13_M_initializeEv
FN:444,_ZNSt8_Rb_treeIPvS0_St9_IdentityIS0_ESt4lessIS0_ESaIS0_EE13_Rb_tree_implIS4_Lb0EE13_M_initializeEv
FN:457,_ZNSt8_Rb_treeIiiSt9_IdentityIiESt4lessIiESaIiEE7_M_rootEv
FN:457,_ZNSt8_Rb_treeIPvSt4pairIKS0_16_data_access_logESt10_Select1stIS4_ESt4lessIS0_ESaIS4_EE7_M_rootEv
FN:457,_ZNSt8_Rb_treeIPvS0_St9_IdentityIS0_ESt4lessIS0_ESaIS0_EE7_M_rootEv
FN:457,_ZNSt8_Rb_treeImSt4pairIKmiESt10_Select1stIS2_ESt4lessImESaIS2_EE7_M_rootEv
FN:461,_ZNKSt8_Rb_treeIiiSt9_IdentityIiESt4lessIiESaIiEE7_M_rootEv
FN:461,_ZNKSt8_Rb_treeIPvS0_St9_IdentityIS0_ESt4lessIS0_ESaIS0_EE7_M_rootEv
FN:465,_ZNSt8_Rb_treeIPvSt4pairIKS0_16_data_access_logESt10_Select1stIS4_ESt4lessIS0_ESaIS4_EE11_M_leftmostEv
FN:465,_ZNSt8_Rb_treeImSt4pairIKmiESt10_Select1stIS2_ESt4lessImESaIS2_EE11_M_leftmostEv
FN:465,_ZNSt8_Rb_treeIiiSt9_IdentityIiESt4lessIiESaIiEE11_M_leftmostEv
FN:465,_ZNSt8_Rb_treeIPvS0_St9_IdentityIS0_ESt4lessIS0_ESaIS0_EE11_M_leftmostEv
FN:473,_ZNSt8_Rb_treeIiiSt9_IdentityIiESt4lessIiESaIiEE12_M_rightmostEv
FN:473,_ZNSt8_Rb_treeIPvS0_St9_IdentityIS0_ESt4lessIS0_ESaIS0_EE12_M_rightmostEv
FN:473,_ZNSt8_Rb_treeIPvSt4pairIKS0_16_data_access_logESt10_Select1stIS4_ESt4lessIS0_ESaIS4_EE12_M_rightmostEv
FN:473,_ZNSt8_Rb_treeImSt4pairIKmiESt10_Select1stIS2_ESt4lessImESaIS2_EE12_M_rightmostEv
FN:481,_ZNSt8_Rb_treeIPvS0_St9_IdentityIS0_ESt4lessIS0_ESaIS0_EE8_M_beginEv
FN:481,_ZNSt8_Rb_treeIiiSt9_IdentityIiESt4lessIiESaIiEE8_M_beginEv
FN:481,_ZNSt8_Rb_treeImSt4pairIKmiESt10_Select1stIS2_ESt4lessImESaIS2_EE8_M_beginEv
FN:481,_ZNSt8_Rb_treeIPvSt4pairIKS0_16_data_access_logESt10_Select1stIS4_ESt4lessIS0_ESaIS4_EE8_M_beginEv
FN:485,_ZNKSt8_Rb_treeIPvS0_St9_IdentityIS0_ESt4lessIS0_ESaIS0_EE8_M_beginEv
FN:485,_ZNKSt8_Rb_treeIiiSt9_IdentityIiESt4lessIiESaIiEE8_M_beginEv
FN:492,_ZNSt8_Rb_treeIPvSt4pairIKS0_16_data_access_logESt10_Select1stIS4_ESt4lessIS0_ESaIS4_EE6_M_endEv
FN:492,_ZNSt8_Rb_treeImSt4pairIKmiESt10_Select1stIS2_ESt4lessImESaIS2_EE6_M_endEv
FN:492,_ZNSt8_Rb_treeIiiSt9_IdentityIiESt4lessIiESaIiEE6_M_endEv
FN:492,_ZNSt8_Rb_treeIPvS0_St9_IdentityIS0_ESt4lessIS0_ESaIS0_EE6_M_endEv
FN:500,_ZNSt8_Rb_treeIPvS0_St9_IdentityIS0_ESt4lessIS0_ESaIS0_EE8_S_valueEPKSt13_Rb_tree_nodeIS0_E
FN:500,_ZNSt8_Rb_treeIiiSt9_IdentityIiESt4lessIiESaIiEE8_S_valueEPKSt13_Rb_tree_nodeIiE
FN:500,_ZNSt8_Rb_treeIPvSt4pairIKS0_16_data_access_logESt10_Select1stIS4_ESt4lessIS0_ESaIS4_EE8_S_valueEPKSt13_Rb_tree_nodeIS4_E
FN:500,_ZNSt8_Rb_treeImSt4pairIKmiESt10_Select1stIS2_ESt4lessImESaIS2_EE8_S_valueEPKSt13_Rb_tree_nodeIS2_E
FN:504,_ZNSt8_Rb_treeIiiSt9_IdentityIiESt4lessIiESaIiEE6_S_keyEPKSt13_Rb_tree_nodeIiE
FN:504,_ZNSt8_Rb_treeIPvS0_St9_IdentityIS0_ESt4lessIS0_ESaIS0_EE6_S_keyEPKSt13_Rb_tree_nodeIS0_E
FN:504,_ZNSt8_Rb_treeIPvSt4pairIKS0_16_data_access_logESt10_Select1stIS4_ESt4lessIS0_ESaIS4_EE6_S_keyEPKSt13_Rb_tree_nodeIS4_E
FN:504,_ZNSt8_Rb_treeImSt4pairIKmiESt10_Select1stIS2_ESt4lessImESaIS2_EE6_S_keyEPKSt13_Rb_tree_nodeIS2_E
FN:508,_ZNSt8_Rb_treeIPvSt4pairIKS0_16_data_access_logESt10_Select1stIS4_ESt4lessIS0_ESaIS4_EE7_S_leftEPSt18_Rb_tree_node_base
FN:508,_ZNSt8_Rb_treeIPvS0_St9_IdentityIS0_ESt4lessIS0_ESaIS0_EE7_S_leftEPSt18_Rb_tree_node_base
FN:508,_ZNSt8_Rb_treeImSt4pairIKmiESt10_Select1stIS2_ESt4lessImESaIS2_EE7_S_leftEPSt18_Rb_tree_node_base
FN:508,_ZNSt8_Rb_treeIiiSt9_IdentityIiESt4lessIiESaIiEE7_S_leftEPSt18_Rb_tree_node_base
FN:512,_ZNSt8_Rb_treeIPvS0_St9_IdentityIS0_ESt4lessIS0_ESaIS0_EE7_S_leftEPKSt18_Rb_tree_node_base
FN:512,_ZNSt8_Rb_treeIiiSt9_IdentityIiESt4lessIiESaIiEE7_S_leftEPKSt18_Rb_tree_node_base
FN:516,_ZNSt8_Rb_treeImSt4pairIKmiESt10_Select1stIS2_ESt4lessImESaIS2_EE8_S_rightEPSt18_Rb_tree_node_base
FN:516,_ZNSt8_Rb_treeIiiSt9_IdentityIiESt4lessIiESaIiEE8_S_rightEPSt18_Rb_tree_node_base
FN:516,_ZNSt8_Rb_treeIPvS0_St9_IdentityIS0_ESt4lessIS0_ESaIS0_EE8_S_rightEPSt18_Rb_tree_node_base
FN:516,_ZNSt8_Rb_treeIPvSt4pairIKS0_16_data_access_logESt10_Select1stIS4_ESt4lessIS0_ESaIS4_EE8_S_rightEPSt18_Rb_tree_node_base
FN:520,_ZNSt8_Rb_treeIiiSt9_IdentityIiESt4lessIiESaIiEE8_S_rightEPKSt18_Rb_tree_node_base
FN:520,_ZNSt8_Rb_treeImSt4pairIKmiESt10_Select1stIS2_ESt4lessImESaIS2_EE8_S_rightEPKSt18_Rb_tree_node_base
FN:520,_ZNSt8_Rb_treeIPvS0_St9_IdentityIS0_ESt4lessIS0_ESaIS0_EE8_S_rightEPKSt18_Rb_tree_node_base
FN:524,_ZNSt8_Rb_treeImSt4pairIKmiESt10_Select1stIS2_ESt4lessImESaIS2_EE8_S_valueEPKSt18_Rb_tree_node_base
FN:524,_ZNSt8_Rb_treeIPvS0_St9_IdentityIS0_ESt4lessIS0_ESaIS0_EE8_S_valueEPKSt18_Rb_tree_node_base
FN:524,_ZNSt8_Rb_treeIPvSt4pairIKS0_16_data_access_logESt10_Select1stIS4_ESt4lessIS0_ESaIS4_EE8_S_valueEPKSt18_Rb_tree_node_base
FN:524,_ZNSt8_Rb_treeIiiSt9_IdentityIiESt4lessIiESaIiEE8_S_valueEPKSt18_Rb_tree_node_base
FN:528,_ZNSt8_Rb_treeIPvS0_St9_IdentityIS0_ESt4lessIS0_ESaIS0_EE6_S_keyEPKSt18_Rb_tree_node_base
FN:528,_ZNSt8_Rb_treeIiiSt9_IdentityIiESt4lessIiESaIiEE6_S_keyEPKSt18_Rb_tree_node_base
FN:528,_ZNSt8_Rb_treeImSt4pairIKmiESt10_Select1stIS2_ESt4lessImESaIS2_EE6_S_keyEPKSt18_Rb_tree_node_base
FN:528,_ZNSt8_Rb_treeIPvSt4pairIKS0_16_data_access_logESt10_Select1stIS4_ESt4lessIS0_ESaIS4_EE6_S_keyEPKSt18_Rb_tree_node_base
FN:532,_ZNSt8_Rb_treeIiiSt9_IdentityIiESt4lessIiESaIiEE10_S_minimumEPSt18_Rb_tree_node_base
FN:532,_ZNSt8_Rb_treeIPvS0_St9_IdentityIS0_ESt4lessIS0_ESaIS0_EE10_S_minimumEPSt18_Rb_tree_node_base
FN:540,_ZNSt8_Rb_treeIPvS0_St9_IdentityIS0_ESt4lessIS0_ESaIS0_EE10_S_maximumEPSt18_Rb_tree_node_base
FN:540,_ZNSt8_Rb_treeIiiSt9_IdentityIiESt4lessIiESaIiEE10_S_maximumEPSt18_Rb_tree_node_base
FN:591,_ZNSt8_Rb_treeIPvSt4pairIKS0_16_data_access_logESt10_Select1stIS4_ESt4lessIS0_ESaIS4_EEC2Ev
FN:591,_ZNSt8_Rb_treeIiiSt9_IdentityIiESt4lessIiESaIiEEC2Ev
FN:591,_ZNSt8_Rb_treeIPvS0_St9_IdentityIS0_ESt4lessIS0_ESaIS0_EEC2Ev
FN:591,_ZNSt8_Rb_treeImSt4pairIKmiESt10_Select1stIS2_ESt4lessImESaIS2_EEC2Ev
FN:597,_ZNSt8_Rb_treeIiiSt9_IdentityIiESt4lessIiESaIiEEC2ERKS5_
FN:597,_ZNSt8_Rb_treeIPvS0_St9_IdentityIS0_ESt4lessIS0_ESaIS0_EEC2ERKS6_
FN:613,_ZNSt8_Rb_treeImSt4pairIKmiESt10_Select1stIS2_ESt4lessImESaIS2_EED2Ev
FN:613,_ZNSt8_Rb_treeIiiSt9_IdentityIiESt4lessIiESaIiEED2Ev
FN:613,_ZNSt8_Rb_treeIPvS0_St9_IdentityIS0_ESt4lessIS0_ESaIS0_EED2Ev
FN:613,_ZNSt8_Rb_treeIPvSt4pairIKS0_16_data_access_logESt10_Select1stIS4_ESt4lessIS0_ESaIS4_EED2Ev
FN:621,_ZNKSt8_Rb_treeImSt4pairIKmiESt10_Select1stIS2_ESt4lessImESaIS2_EE8key_compEv
FN:625,_ZNSt8_Rb_treeIPvSt4pairIKS0_16_data_access_logESt10_Select1stIS4_ESt4lessIS0_ESaIS4_EE5beginEv
FN:625,_ZNSt8_Rb_treeImSt4pairIKmiESt10_Select1stIS2_ESt4lessImESaIS2_EE5beginEv
FN:625,_ZNSt8_Rb_treeIiiSt9_IdentityIiESt4lessIiESaIiEE5beginEv
FN:625,_ZNSt8_Rb_treeIPvS0_St9_IdentityIS0_ESt4lessIS0_ESaIS0_EE5beginEv
FN:632,_ZNKSt8_Rb_treeIiiSt9_IdentityIiESt4lessIiESaIiEE5beginEv
FN:632,_ZNKSt8_Rb_treeIPvS0_St9_IdentityIS0_ESt4lessIS0_ESaIS0_EE5beginEv
FN:639,_ZNSt8_Rb_treeIPvSt4pairIKS0_16_data_access_logESt10_Select1stIS4_ESt4lessIS0_ESaIS4_EE3endEv
FN:639,_ZNSt8_Rb_treeIPvS0_St9_IdentityIS0_ESt4lessIS0_ESaIS0_EE3endEv
FN:639,_ZNSt8_Rb_treeImSt4pairIKmiESt10_Select1stIS2_ESt4lessImESaIS2_EE3endEv
FN:639,_ZNSt8_Rb_treeIiiSt9_IdentityIiESt4lessIiESaIiEE3endEv
FN:643,_ZNKSt8_Rb_treeIiiSt9_IdentityIiESt4lessIiESaIiEE3endEv
FN:643,_ZNKSt8_Rb_treeIPvS0_St9_IdentityIS0_ESt4lessIS0_ESaIS0_EE3endEv
FN:666,_ZNKSt8_Rb_treeIiiSt9_IdentityIiESt4lessIiESaIiEE5emptyEv
FN:666,_ZNKSt8_Rb_treeImSt4pairIKmiESt10_Select1stIS2_ESt4lessImESaIS2_EE5emptyEv
FN:666,_ZNKSt8_Rb_treeIPvSt4pairIKS0_16_data_access_logESt10_Select1stIS4_ESt4lessIS0_ESaIS4_EE5emptyEv
FN:670,_ZNKSt8_Rb_treeImSt4pairIKmiESt10_Select1stIS2_ESt4lessImESaIS2_EE4sizeEv
FN:670,_ZNKSt8_Rb_treeIiiSt9_IdentityIiESt4lessIiESaIiEE4sizeEv
FN:742,_ZNSt8_Rb_treeIPvSt4pairIKS0_16_data_access_logESt10_Select1stIS4_ESt4lessIS0_ESaIS4_EE5clearEv
FN:742,_ZNSt8_Rb_treeIPvS0_St9_IdentityIS0_ESt4lessIS0_ESaIS0_EE5clearEv
FN:742,_ZNSt8_Rb_treeImSt4pairIKmiESt10_Select1stIS2_ESt4lessImESaIS2_EE5clearEv
FN:742,_ZNSt8_Rb_treeIiiSt9_IdentityIiESt4lessIiESaIiEE5clearEv
FN:762,_ZNSt8_Rb_treeImSt4pairIKmiESt10_Select1stIS2_ESt4lessImESaIS2_EE11lower_boundERS1_
FN:870,_ZNSt8_Rb_treeIPvS0_St9_IdentityIS0_ESt4lessIS0_ESaIS0_EEaSERKS6_
FN:892,_ZNSt8_Rb_treeIPvS0_St9_IdentityIS0_ESt4lessIS0_ESaIS0_EE10_M_insert_EPKSt18_Rb_tree_node_baseS9_RKS0_
FN:892,_ZNSt8_Rb_treeIPvSt4pairIKS0_16_data_access_logESt10_Select1stIS4_ESt4lessIS0_ESaIS4_EE10_M_insert_EPKSt18_Rb_tree_node_baseSD_RKS4_
FN:892,_ZNSt8_Rb_treeImSt4pairIKmiESt10_Select1stIS2_ESt4lessImESaIS2_EE10_M_insert_EPKSt18_Rb_tree_node_baseSB_RKS2_
FN:892,_ZNSt8_Rb_treeIiiSt9_IdentityIiESt4lessIiESaIiEE10_M_insert_EPKSt18_Rb_tree_node_baseS8_RKi
FN:946,_ZNSt8_Rb_treeIiiSt9_IdentityIiESt4lessIiESaIiEE7_M_copyEPKSt13_Rb_tree_nodeIiEPS7_
FN:946,_ZNSt8_Rb_treeIPvS0_St9_IdentityIS0_ESt4lessIS0_ESaIS0_EE7_M_copyEPKSt13_Rb_tree_nodeIS0_EPS8_
FN:982,_ZNSt8_Rb_treeIPvSt4pairIKS0_16_data_access_logESt10_Select1stIS4_ESt4lessIS0_ESaIS4_EE8_M_eraseEPSt13_Rb_tree_nodeIS4_E
FN:982,_ZNSt8_Rb_treeImSt4pairIKmiESt10_Select1stIS2_ESt4lessImESaIS2_EE8_M_eraseEPSt13_Rb_tree_nodeIS2_E
FN:982,_ZNSt8_Rb_treeIiiSt9_IdentityIiESt4lessIiESaIiEE8_M_eraseEPSt13_Rb_tree_nodeIiE
FN:982,_ZNSt8_Rb_treeIPvS0_St9_IdentityIS0_ESt4lessIS0_ESaIS0_EE8_M_eraseEPSt13_Rb_tree_nodeIS0_E
FN:999,_ZNSt8_Rb_treeIPvS0_St9_IdentityIS0_ESt4lessIS0_ESaIS0_EE14_M_lower_boundEPSt13_Rb_tree_nodeIS0_ES9_RKS0_
FN:999,_ZNSt8_Rb_treeIiiSt9_IdentityIiESt4lessIiESaIiEE14_M_lower_boundEPSt13_Rb_tree_nodeIiES8_RKi
FN:999,_ZNSt8_Rb_treeIPvSt4pairIKS0_16_data_access_logESt10_Select1stIS4_ESt4lessIS0_ESaIS4_EE14_M_lower_boundEPSt13_Rb_tree_nodeIS4_ESD_RS2_
FN:999,_ZNSt8_Rb_treeImSt4pairIKmiESt10_Select1stIS2_ESt4lessImESaIS2_EE14_M_lower_boundEPSt13_Rb_tree_nodeIS2_ESB_RS1_
FN:1031,_ZNSt8_Rb_treeIiiSt9_IdentityIiESt4lessIiESaIiEE14_M_upper_boundEPSt13_Rb_tree_nodeIiES8_RKi
FN:1065,_ZNSt8_Rb_treeIiiSt9_IdentityIiESt4lessIiESaIiEE11equal_rangeERKi
FN:1175,_ZNSt8_Rb_treeImSt4pairIKmiESt10_Select1stIS2_ESt4lessImESaIS2_EE16_M_insert_uniqueERKS2_
FN:1175,_ZNSt8_Rb_treeIPvS0_St9_IdentityIS0_ESt4lessIS0_ESaIS0_EE16_M_insert_uniqueERKS0_
FN:1175,_ZNSt8_Rb_treeIPvSt4pairIKS0_16_data_access_logESt10_Select1stIS4_ESt4lessIS0_ESaIS4_EE16_M_insert_uniqueERKS4_
FN:1175,_ZNSt8_Rb_treeIiiSt9_IdentityIiESt4lessIiESaIiEE16_M_insert_uniqueERKi
FN:1220,_ZNSt8_Rb_treeImSt4pairIKmiESt10_Select1stIS2_ESt4lessImESaIS2_EE17_M_insert_unique_ESt23_Rb_tree_const_iteratorIS2_ERKS2_
FN:1220,_ZNSt8_Rb_treeIiiSt9_IdentityIiESt4lessIiESaIiEE17_M_insert_unique_ESt23_Rb_tree_const_iteratorIiERKi
FN:1334,_ZNSt8_Rb_treeIiiSt9_IdentityIiESt4lessIiESaIiEE16_M_insert_uniqueIN9__gnu_cxx17__normal_iteratorIPiSt6vectorIiS4_EEEEEvT_SD_
FN:1394,_ZNSt8_Rb_treeIiiSt9_IdentityIiESt4lessIiESaIiEE5eraseESt17_Rb_tree_iteratorIiE
FN:1423,_ZNSt8_Rb_treeIiiSt9_IdentityIiESt4lessIiESaIiEE5eraseERKi
FN:1478,_ZNSt8_Rb_treeIiiSt9_IdentityIiESt4lessIiESaIiEE5eraseESt17_Rb_tree_iteratorIiES7_
FN:1516,_ZNSt8_Rb_treeIPvSt4pairIKS0_16_data_access_logESt10_Select1stIS4_ESt4lessIS0_ESaIS4_EE4findERS2_
FN:1516,_ZNSt8_Rb_treeIPvS0_St9_IdentityIS0_ESt4lessIS0_ESaIS0_EE4findERKS0_
FN:1516,_ZNSt8_Rb_treeImSt4pairIKmiESt10_Select1stIS2_ESt4lessImESaIS2_EE4findERS1_
FN:1516,_ZNSt8_Rb_treeIiiSt9_IdentityIiESt4lessIiESaIiEE4findERKi
FNDA:0,_ZNSt18_Rb_tree_node_base10_S_minimumEPS_
FNDA:0,_ZNSt18_Rb_tree_node_base10_S_maximumEPS_
FNDA:0,_ZNSt17_Rb_tree_iteratorISt4pairIKmiEEC2Ev
FNDA:0,_ZNSt17_Rb_tree_iteratorISt4pairIKmiEEC2EPSt13_Rb_tree_nodeIS2_E
FNDA:0,_ZNSt17_Rb_tree_iteratorIPvEC2EPSt13_Rb_tree_nodeIS0_E
FNDA:0,_ZNSt17_Rb_tree_iteratorIiEC2EPSt13_Rb_tree_nodeIiE
FNDA:0,_ZNSt17_Rb_tree_iteratorISt4pairIKPv16_data_access_logEEC2EPSt13_Rb_tree_nodeIS4_E
FNDA:0,_ZNKSt17_Rb_tree_iteratorISt4pairIKmiEEdeEv
FNDA:0,_ZNKSt17_Rb_tree_iteratorISt4pairIKmiEEptEv
FNDA:0,_ZNKSt17_Rb_tree_iteratorISt4pairIKPv16_data_access_logEEptEv
FNDA:0,_ZNSt17_Rb_tree_iteratorISt4pairIKmiEEppEi
FNDA:0,_ZNSt17_Rb_tree_iteratorIiEppEi
FNDA:0,_ZNSt17_Rb_tree_iteratorIPvEmmEv
FNDA:0,_ZNSt17_Rb_tree_iteratorIiEmmEv
FNDA:0,_ZNSt17_Rb_tree_iteratorISt4pairIKmiEEmmEv
FNDA:0,_ZNSt17_Rb_tree_iteratorISt4pairIKPv16_data_access_logEEmmEv
FNDA:0,_ZNKSt17_Rb_tree_iteratorISt4pairIKmiEEeqERKS3_
FNDA:0,_ZNKSt17_Rb_tree_iteratorISt4pairIKPv16_data_access_logEEeqERKS5_
FNDA:0,_ZNKSt17_Rb_tree_iteratorIPvEeqERKS1_
FNDA:0,_ZNKSt17_Rb_tree_iteratorIiEeqERKS0_
FNDA:0,_ZNKSt17_Rb_tree_iteratorISt4pairIKmiEEneERKS3_
FNDA:0,_ZNKSt17_Rb_tree_iteratorIiEneERKS0_
FNDA:0,_ZNSt23_Rb_tree_const_iteratorIPvEC2Ev
FNDA:0,_ZNSt23_Rb_tree_const_iteratorIiEC2Ev
FNDA:0,_ZNSt23_Rb_tree_const_iteratorIPvEC2EPKSt13_Rb_tree_nodeIS0_E
FNDA:0,_ZNSt23_Rb_tree_const_iteratorIiEC2EPKSt13_Rb_tree_nodeIiE
FNDA:0,_ZNSt23_Rb_tree_const_iteratorIPvEC2ERKSt17_Rb_tree_iteratorIS0_E
FNDA:0,_ZNSt23_Rb_tree_const_iteratorIiEC2ERKSt17_Rb_tree_iteratorIiE
FNDA:0,_ZNSt23_Rb_tree_const_iteratorISt4pairIKmiEEC2ERKSt17_Rb_tree_iteratorIS2_E
FNDA:0,_ZNKSt23_Rb_tree_const_iteratorIPvEdeEv
FNDA:0,_ZNKSt23_Rb_tree_const_iteratorIiEdeEv
FNDA:0,_ZNSt23_Rb_tree_const_iteratorISt4pairIKmiEEppEv
FNDA:0,_ZNSt23_Rb_tree_const_iteratorIiEppEv
FNDA:0,_ZNSt23_Rb_tree_const_iteratorIPvEppEi
FNDA:0,_ZNSt23_Rb_tree_const_iteratorIiEppEi
FNDA:0,_ZNSt23_Rb_tree_const_iteratorISt4pairIKmiEEmmEv
FNDA:0,_ZNSt23_Rb_tree_const_iteratorIiEmmEv
FNDA:0,_ZNKSt23_Rb_tree_const_iteratorIPvEeqERKS1_
FNDA:0,_ZNKSt23_Rb_tree_const_iteratorIiEeqERKS0_
FNDA:0,_ZNKSt23_Rb_tree_const_iteratorIPvEneERKS1_
FNDA:0,_ZNKSt23_Rb_tree_const_iteratorIiEneERKS0_
FNDA:0,_ZNKSt8_Rb_treeIPvS0_St9_IdentityIS0_ESt4lessIS0_ESaIS0_EE21_M_get_Node_allocatorEv
FNDA:0,_ZNKSt8_Rb_treeImSt4pairIKmiESt10_Select1stIS2_ESt4lessImESaIS2_EE21_M_get_Node_allocatorEv
FNDA:0,_ZNKSt8_Rb_treeIiiSt9_IdentityIiESt4lessIiESaIiEE21_M_get_Node_allocatorEv
FNDA:0,_ZNKSt8_Rb_treeIPvSt4pairIKS0_16_data_access_logESt10_Select1stIS4_ESt4lessIS0_ESaIS4_EE21_M_get_Node_allocatorEv
FNDA:0,_ZNKSt8_Rb_treeIiiSt9_IdentityIiESt4lessIiESaIiEE13get_allocatorEv
FNDA:0,_ZNKSt8_Rb_treeIPvS0_St9_IdentityIS0_ESt4lessIS0_ESaIS0_EE13get_allocatorEv
FNDA:0,_ZNKSt8_Rb_treeImSt4pairIKmiESt10_Select1stIS2_ESt4lessImESaIS2_EE13get_allocatorEv
FNDA:0,_ZNKSt8_Rb_treeIPvSt4pairIKS0_16_data_access_logESt10_Select1stIS4_ESt4lessIS0_ESaIS4_EE13get_allocatorEv
FNDA:0,_ZNSt8_Rb_treeIPvS0_St9_IdentityIS0_ESt4lessIS0_ESaIS0_EE11_M_get_nodeEv
FNDA:0,_ZNSt8_Rb_treeIiiSt9_IdentityIiESt4lessIiESaIiEE11_M_get_nodeEv
FNDA:0,_ZNSt8_Rb_treeImSt4pairIKmiESt10_Select1stIS2_ESt4lessImESaIS2_EE11_M_get_nodeEv
FNDA:0,_ZNSt8_Rb_treeIPvSt4pairIKS0_16_data_access_logESt10_Select1stIS4_ESt4lessIS0_ESaIS4_EE11_M_get_nodeEv
FNDA:0,_ZNSt8_Rb_treeIPvS0_St9_IdentityIS0_ESt4lessIS0_ESaIS0_EE11_M_put_nodeEPSt13_Rb_tree_nodeIS0_E
FNDA:0,_ZNSt8_Rb_treeImSt4pairIKmiESt10_Select1stIS2_ESt4lessImESaIS2_EE11_M_put_nodeEPSt13_Rb_tree_nodeIS2_E
FNDA:0,_ZNSt8_Rb_treeIiiSt9_IdentityIiESt4lessIiESaIiEE11_M_put_nodeEPSt13_Rb_tree_nodeIiE
FNDA:0,_ZNSt8_Rb_treeIPvSt4pairIKS0_16_data_access_logESt10_Select1stIS4_ESt4lessIS0_ESaIS4_EE11_M_put_nodeEPSt13_Rb_tree_nodeIS4_E
FNDA:0,_ZNSt8_Rb_treeIPvS0_St9_IdentityIS0_ESt4lessIS0_ESaIS0_EE14_M_create_nodeERKS0_
FNDA:0,_ZNSt8_Rb_treeIiiSt9_IdentityIiESt4lessIiESaIiEE14_M_create_nodeERKi
FNDA:0,_ZNSt8_Rb_treeImSt4pairIKmiESt10_Select1stIS2_ESt4lessImESaIS2_EE14_M_create_nodeERKS2_
FNDA:0,_ZNSt8_Rb_treeIPvSt4pairIKS0_16_data_access_logESt10_Select1stIS4_ESt4lessIS0_ESaIS4_EE14_M_create_nodeERKS4_
FNDA:0,_ZNSt8_Rb_treeIiiSt9_IdentityIiESt4lessIiESaIiEE15_M_destroy_nodeEPSt13_Rb_tree_nodeIiE
FNDA:0,_ZNSt8_Rb_treeIPvS0_St9_IdentityIS0_ESt4lessIS0_ESaIS0_EE15_M_destroy_nodeEPSt13_Rb_tree_nodeIS0_E
FNDA:0,_ZNSt8_Rb_treeImSt4pairIKmiESt10_Select1stIS2_ESt4lessImESaIS2_EE15_M_destroy_nodeEPSt13_Rb_tree_nodeIS2_E
FNDA:0,_ZNSt8_Rb_treeIPvSt4pairIKS0_16_data_access_logESt10_Select1stIS4_ESt4lessIS0_ESaIS4_EE15_M_destroy_nodeEPSt13_Rb_tree_nodeIS4_E
FNDA:0,_ZNSt8_Rb_treeIPvS0_St9_IdentityIS0_ESt4lessIS0_ESaIS0_EE13_M_clone_nodeEPKSt13_Rb_tree_nodeIS0_E
FNDA:0,_ZNSt8_Rb_treeIiiSt9_IdentityIiESt4lessIiESaIiEE13_M_clone_nodeEPKSt13_Rb_tree_nodeIiE
FNDA:0,_ZNSt8_Rb_treeIPvS0_St9_IdentityIS0_ESt4lessIS0_ESaIS0_EE13_Rb_tree_implIS4_Lb0EED2Ev
FNDA:0,_ZNSt8_Rb_treeImSt4pairIKmiESt10_Select1stIS2_ESt4lessImESaIS2_EE13_Rb_tree_implIS6_Lb0EED2Ev
FNDA:0,_ZNSt8_Rb_treeIiiSt9_IdentityIiESt4lessIiESaIiEE13_Rb_tree_implIS3_Lb0EED2Ev
FNDA:0,_ZNSt8_Rb_treeIPvSt4pairIKS0_16_data_access_logESt10_Select1stIS4_ESt4lessIS0_ESaIS4_EE13_Rb_tree_implIS8_Lb0EED2Ev
FNDA:0,_ZNSt8_Rb_treeIPvS0_St9_IdentityIS0_ESt4lessIS0_ESaIS0_EE13_Rb_tree_implIS4_Lb0EEC2Ev
FNDA:0,_ZNSt8_Rb_treeImSt4pairIKmiESt10_Select1stIS2_ESt4lessImESaIS2_EE13_Rb_tree_implIS6_Lb0EEC2Ev
FNDA:0,_ZNSt8_Rb_treeIiiSt9_IdentityIiESt4lessIiESaIiEE13_Rb_tree_implIS3_Lb0EEC2Ev
FNDA:0,_ZNSt8_Rb_treeIPvSt4pairIKS0_16_data_access_logESt10_Select1stIS4_ESt4lessIS0_ESaIS4_EE13_Rb_tree_implIS8_Lb0EEC2Ev
FNDA:0,_ZNSt8_Rb_treeIPvS0_St9_IdentityIS0_ESt4lessIS0_ESaIS0_EE13_Rb_tree_implIS4_Lb0EEC2ERKS4_RKSaISt13_Rb_tree_nodeIS0_EE
FNDA:0,_ZNSt8_Rb_treeIiiSt9_IdentityIiESt4lessIiESaIiEE13_Rb_tree_implIS3_Lb0EEC2ERKS3_RKSaISt13_Rb_tree_nodeIiEE
FNDA:0,_ZNSt8_Rb_treeIPvS0_St9_IdentityIS0_ESt4lessIS0_ESaIS0_EE13_Rb_tree_implIS4_Lb0EE13_M_initializeEv
FNDA:0,_ZNSt8_Rb_treeImSt4pairIKmiESt10_Select1stIS2_ESt4lessImESaIS2_EE13_Rb_tree_implIS6_Lb0EE13_M_initializeEv
FNDA:0,_ZNSt8_Rb_treeIiiSt9_IdentityIiESt4lessIiESaIiEE13_Rb_tree_implIS3_Lb0EE13_M_initializeEv
FNDA:0,_ZNSt8_Rb_treeIPvSt4pairIKS0_16_data_access_logESt10_Select1stIS4_ESt4lessIS0_ESaIS4_EE13_Rb_tree_implIS8_Lb0EE13_M_initializeEv
FNDA:0,_ZNSt8_Rb_treeImSt4pairIKmiESt10_Select1stIS2_ESt4lessImESaIS2_EE7_M_rootEv
FNDA:0,_ZNSt8_Rb_treeIPvS0_St9_IdentityIS0_ESt4lessIS0_ESaIS0_EE7_M_rootEv
FNDA:0,_ZNSt8_Rb_treeIPvSt4pairIKS0_16_data_access_logESt10_Select1stIS4_ESt4lessIS0_ESaIS4_EE7_M_rootEv
FNDA:0,_ZNSt8_Rb_treeIiiSt9_IdentityIiESt4lessIiESaIiEE7_M_rootEv
FNDA:0,_ZNKSt8_Rb_treeIPvS0_St9_IdentityIS0_ESt4lessIS0_ESaIS0_EE7_M_rootEv
FNDA:0,_ZNKSt8_Rb_treeIiiSt9_IdentityIiESt4lessIiESaIiEE7_M_rootEv
FNDA:0,_ZNSt8_Rb_treeImSt4pairIKmiESt10_Select1stIS2_ESt4lessImESaIS2_EE11_M_leftmostEv
FNDA:0,_ZNSt8_Rb_treeIPvS0_St9_IdentityIS0_ESt4lessIS0_ESaIS0_EE11_M_leftmostEv
FNDA:0,_ZNSt8_Rb_treeIPvSt4pairIKS0_16_data_access_logESt10_Select1stIS4_ESt4lessIS0_ESaIS4_EE11_M_leftmostEv
FNDA:0,_ZNSt8_Rb_treeIiiSt9_IdentityIiESt4lessIiESaIiEE11_M_leftmostEv
FNDA:0,_ZNSt8_Rb_treeImSt4pairIKmiESt10_Select1stIS2_ESt4lessImESaIS2_EE12_M_rightmostEv
FNDA:0,_ZNSt8_Rb_treeIPvS0_St9_IdentityIS0_ESt4lessIS0_ESaIS0_EE12_M_rightmostEv
FNDA:0,_ZNSt8_Rb_treeIPvSt4pairIKS0_16_data_access_logESt10_Select1stIS4_ESt4lessIS0_ESaIS4_EE12_M_rightmostEv
FNDA:0,_ZNSt8_Rb_treeIiiSt9_IdentityIiESt4lessIiESaIiEE12_M_rightmostEv
FNDA:0,_ZNSt8_Rb_treeIPvS0_St9_IdentityIS0_ESt4lessIS0_ESaIS0_EE8_M_beginEv
FNDA:0,_ZNSt8_Rb_treeImSt4pairIKmiESt10_Select1stIS2_ESt4lessImESaIS2_EE8_M_beginEv
FNDA:0,_ZNSt8_Rb_treeIiiSt9_IdentityIiESt4lessIiESaIiEE8_M_beginEv
FNDA:0,_ZNSt8_Rb_treeIPvSt4pairIKS0_16_data_access_logESt10_Select1stIS4_ESt4lessIS0_ESaIS4_EE8_M_beginEv
FNDA:0,_ZNKSt8_Rb_treeIPvS0_St9_IdentityIS0_ESt4lessIS0_ESaIS0_EE8_M_beginEv
FNDA:0,_ZNKSt8_Rb_treeIiiSt9_IdentityIiESt4lessIiESaIiEE8_M_beginEv
FNDA:0,_ZNSt8_Rb_treeImSt4pairIKmiESt10_Select1stIS2_ESt4lessImESaIS2_EE6_M_endEv
FNDA:0,_ZNSt8_Rb_treeIPvS0_St9_IdentityIS0_ESt4lessIS0_ESaIS0_EE6_M_endEv
FNDA:0,_ZNSt8_Rb_treeIiiSt9_IdentityIiESt4lessIiESaIiEE6_M_endEv
FNDA:0,_ZNSt8_Rb_treeIPvSt4pairIKS0_16_data_access_logESt10_Select1stIS4_ESt4lessIS0_ESaIS4_EE6_M_endEv
FNDA:0,_ZNSt8_Rb_treeIPvS0_St9_IdentityIS0_ESt4lessIS0_ESaIS0_EE8_S_valueEPKSt13_Rb_tree_nodeIS0_E
FNDA:0,_ZNSt8_Rb_treeIiiSt9_IdentityIiESt4lessIiESaIiEE8_S_valueEPKSt13_Rb_tree_nodeIiE
FNDA:0,_ZNSt8_Rb_treeImSt4pairIKmiESt10_Select1stIS2_ESt4lessImESaIS2_EE8_S_valueEPKSt13_Rb_tree_nodeIS2_E
FNDA:0,_ZNSt8_Rb_treeIPvSt4pairIKS0_16_data_access_logESt10_Select1stIS4_ESt4lessIS0_ESaIS4_EE8_S_valueEPKSt13_Rb_tree_nodeIS4_E
FNDA:0,_ZNSt8_Rb_treeIPvS0_St9_IdentityIS0_ESt4lessIS0_ESaIS0_EE6_S_keyEPKSt13_Rb_tree_nodeIS0_E
FNDA:0,_ZNSt8_Rb_treeIiiSt9_IdentityIiESt4lessIiESaIiEE6_S_keyEPKSt13_Rb_tree_nodeIiE
FNDA:0,_ZNSt8_Rb_treeImSt4pairIKmiESt10_Select1stIS2_ESt4lessImESaIS2_EE6_S_keyEPKSt13_Rb_tree_nodeIS2_E
FNDA:0,_ZNSt8_Rb_treeIPvSt4pairIKS0_16_data_access_logESt10_Select1stIS4_ESt4lessIS0_ESaIS4_EE6_S_keyEPKSt13_Rb_tree_nodeIS4_E
FNDA:0,_ZNSt8_Rb_treeIPvS0_St9_IdentityIS0_ESt4lessIS0_ESaIS0_EE7_S_leftEPSt18_Rb_tree_node_base
FNDA:0,_ZNSt8_Rb_treeImSt4pairIKmiESt10_Select1stIS2_ESt4lessImESaIS2_EE7_S_leftEPSt18_Rb_tree_node_base
FNDA:0,_ZNSt8_Rb_treeIiiSt9_IdentityIiESt4lessIiESaIiEE7_S_leftEPSt18_Rb_tree_node_base
FNDA:0,_ZNSt8_Rb_treeIPvSt4pairIKS0_16_data_access_logESt10_Select1stIS4_ESt4lessIS0_ESaIS4_EE7_S_leftEPSt18_Rb_tree_node_base
FNDA:0,_ZNSt8_Rb_treeIPvS0_St9_IdentityIS0_ESt4lessIS0_ESaIS0_EE7_S_leftEPKSt18_Rb_tree_node_base
FNDA:0,_ZNSt8_Rb_treeIiiSt9_IdentityIiESt4lessIiESaIiEE7_S_leftEPKSt18_Rb_tree_node_base
FNDA:0,_ZNSt8_Rb_treeIPvS0_St9_IdentityIS0_ESt4lessIS0_ESaIS0_EE8_S_rightEPSt18_Rb_tree_node_base
FNDA:0,_ZNSt8_Rb_treeImSt4pairIKmiESt10_Select1stIS2_ESt4lessImESaIS2_EE8_S_rightEPSt18_Rb_tree_node_base
FNDA:0,_ZNSt8_Rb_treeIiiSt9_IdentityIiESt4lessIiESaIiEE8_S_rightEPSt18_Rb_tree_node_base
FNDA:0,_ZNSt8_Rb_treeIPvSt4pairIKS0_16_data_access_logESt10_Select1stIS4_ESt4lessIS0_ESaIS4_EE8_S_rightEPSt18_Rb_tree_node_base
FNDA:0,_ZNSt8_Rb_treeImSt4pairIKmiESt10_Select1stIS2_ESt4lessImESaIS2_EE8_S_rightEPKSt18_Rb_tree_node_base
FNDA:0,_ZNSt8_Rb_treeIPvS0_St9_IdentityIS0_ESt4lessIS0_ESaIS0_EE8_S_rightEPKSt18_Rb_tree_node_base
FNDA:0,_ZNSt8_Rb_treeIiiSt9_IdentityIiESt4lessIiESaIiEE8_S_rightEPKSt18_Rb_tree_node_base
FNDA:0,_ZNSt8_Rb_treeIPvS0_St9_IdentityIS0_ESt4lessIS0_ESaIS0_EE8_S_valueEPKSt18_Rb_tree_node_base
FNDA:0,_ZNSt8_Rb_treeImSt4pairIKmiESt10_Select1stIS2_ESt4lessImESaIS2_EE8_S_valueEPKSt18_Rb_tree_node_base
FNDA:0,_ZNSt8_Rb_treeIiiSt9_IdentityIiESt4lessIiESaIiEE8_S_valueEPKSt18_Rb_tree_node_base
FNDA:0,_ZNSt8_Rb_treeIPvSt4pairIKS0_16_data_access_logESt10_Select1stIS4_ESt4lessIS0_ESaIS4_EE8_S_valueEPKSt18_Rb_tree_node_base
FNDA:0,_ZNSt8_Rb_treeIPvS0_St9_IdentityIS0_ESt4lessIS0_ESaIS0_EE6_S_keyEPKSt18_Rb_tree_node_base
FNDA:0,_ZNSt8_Rb_treeImSt4pairIKmiESt10_Select1stIS2_ESt4lessImESaIS2_EE6_S_keyEPKSt18_Rb_tree_node_base
FNDA:0,_ZNSt8_Rb_treeIiiSt9_IdentityIiESt4lessIiESaIiEE6_S_keyEPKSt18_Rb_tree_node_base
FNDA:0,_ZNSt8_Rb_treeIPvSt4pairIKS0_16_data_access_logESt10_Select1stIS4_ESt4lessIS0_ESaIS4_EE6_S_keyEPKSt18_Rb_tree_node_base
FNDA:0,_ZNSt8_Rb_treeIPvS0_St9_IdentityIS0_ESt4lessIS0_ESaIS0_EE10_S_minimumEPSt18_Rb_tree_node_base
FNDA:0,_ZNSt8_Rb_treeIiiSt9_IdentityIiESt4lessIiESaIiEE10_S_minimumEPSt18_Rb_tree_node_base
FNDA:0,_ZNSt8_Rb_treeIPvS0_St9_IdentityIS0_ESt4lessIS0_ESaIS0_EE10_S_maximumEPSt18_Rb_tree_node_base
FNDA:0,_ZNSt8_Rb_treeIiiSt9_IdentityIiESt4lessIiESaIiEE10_S_maximumEPSt18_Rb_tree_node_base
FNDA:0,_ZNSt8_Rb_treeIPvS0_St9_IdentityIS0_ESt4lessIS0_ESaIS0_EEC2Ev
FNDA:0,_ZNSt8_Rb_treeImSt4pairIKmiESt10_Select1stIS2_ESt4lessImESaIS2_EEC2Ev
FNDA:0,_ZNSt8_Rb_treeIiiSt9_IdentityIiESt4lessIiESaIiEEC2Ev
FNDA:0,_ZNSt8_Rb_treeIPvSt4pairIKS0_16_data_access_logESt10_Select1stIS4_ESt4lessIS0_ESaIS4_EEC2Ev
FNDA:0,_ZNSt8_Rb_treeIPvS0_St9_IdentityIS0_ESt4lessIS0_ESaIS0_EEC2ERKS6_
FNDA:0,_ZNSt8_Rb_treeIiiSt9_IdentityIiESt4lessIiESaIiEEC2ERKS5_
FNDA:0,_ZNSt8_Rb_treeIiiSt9_IdentityIiESt4lessIiESaIiEED2Ev
FNDA:0,_ZNSt8_Rb_treeIPvS0_St9_IdentityIS0_ESt4lessIS0_ESaIS0_EED2Ev
FNDA:0,_ZNSt8_Rb_treeImSt4pairIKmiESt10_Select1stIS2_ESt4lessImESaIS2_EED2Ev
FNDA:0,_ZNSt8_Rb_treeIPvSt4pairIKS0_16_data_access_logESt10_Select1stIS4_ESt4lessIS0_ESaIS4_EED2Ev
FNDA:0,_ZNKSt8_Rb_treeImSt4pairIKmiESt10_Select1stIS2_ESt4lessImESaIS2_EE8key_compEv
FNDA:0,_ZNSt8_Rb_treeImSt4pairIKmiESt10_Select1stIS2_ESt4lessImESaIS2_EE5beginEv
FNDA:0,_ZNSt8_Rb_treeIPvS0_St9_IdentityIS0_ESt4lessIS0_ESaIS0_EE5beginEv
FNDA:0,_ZNSt8_Rb_treeIiiSt9_IdentityIiESt4lessIiESaIiEE5beginEv
FNDA:0,_ZNSt8_Rb_treeIPvSt4pairIKS0_16_data_access_logESt10_Select1stIS4_ESt4lessIS0_ESaIS4_EE5beginEv
FNDA:0,_ZNKSt8_Rb_treeIPvS0_St9_IdentityIS0_ESt4lessIS0_ESaIS0_EE5beginEv
FNDA:0,_ZNKSt8_Rb_treeIiiSt9_IdentityIiESt4lessIiESaIiEE5beginEv
FNDA:0,_ZNSt8_Rb_treeImSt4pairIKmiESt10_Select1stIS2_ESt4lessImESaIS2_EE3endEv
FNDA:0,_ZNSt8_Rb_treeIPvS0_St9_IdentityIS0_ESt4lessIS0_ESaIS0_EE3endEv
FNDA:0,_ZNSt8_Rb_treeIiiSt9_IdentityIiESt4lessIiESaIiEE3endEv
FNDA:0,_ZNSt8_Rb_treeIPvSt4pairIKS0_16_data_access_logESt10_Select1stIS4_ESt4lessIS0_ESaIS4_EE3endEv
FNDA:0,_ZNKSt8_Rb_treeIPvS0_St9_IdentityIS0_ESt4lessIS0_ESaIS0_EE3endEv
FNDA:0,_ZNKSt8_Rb_treeIiiSt9_IdentityIiESt4lessIiESaIiEE3endEv
FNDA:0,_ZNKSt8_Rb_treeImSt4pairIKmiESt10_Select1stIS2_ESt4lessImESaIS2_EE5emptyEv
FNDA:0,_ZNKSt8_Rb_treeIiiSt9_IdentityIiESt4lessIiESaIiEE5emptyEv
FNDA:0,_ZNKSt8_Rb_treeIPvSt4pairIKS0_16_data_access_logESt10_Select1stIS4_ESt4lessIS0_ESaIS4_EE5emptyEv
FNDA:0,_ZNKSt8_Rb_treeIiiSt9_IdentityIiESt4lessIiESaIiEE4sizeEv
FNDA:0,_ZNKSt8_Rb_treeImSt4pairIKmiESt10_Select1stIS2_ESt4lessImESaIS2_EE4sizeEv
FNDA:0,_ZNSt8_Rb_treeIPvS0_St9_IdentityIS0_ESt4lessIS0_ESaIS0_EE5clearEv
FNDA:0,_ZNSt8_Rb_treeIiiSt9_IdentityIiESt4lessIiESaIiEE5clearEv
FNDA:0,_ZNSt8_Rb_treeImSt4pairIKmiESt10_Select1stIS2_ESt4lessImESaIS2_EE5clearEv
FNDA:0,_ZNSt8_Rb_treeIPvSt4pairIKS0_16_data_access_logESt10_Select1stIS4_ESt4lessIS0_ESaIS4_EE5clearEv
FNDA:0,_ZNSt8_Rb_treeImSt4pairIKmiESt10_Select1stIS2_ESt4lessImESaIS2_EE11lower_boundERS1_
FNDA:0,_ZNSt8_Rb_treeIPvS0_St9_IdentityIS0_ESt4lessIS0_ESaIS0_EEaSERKS6_
FNDA:0,_ZNSt8_Rb_treeIPvS0_St9_IdentityIS0_ESt4lessIS0_ESaIS0_EE10_M_insert_EPKSt18_Rb_tree_node_baseS9_RKS0_
FNDA:0,_ZNSt8_Rb_treeIiiSt9_IdentityIiESt4lessIiESaIiEE10_M_insert_EPKSt18_Rb_tree_node_baseS8_RKi
FNDA:0,_ZNSt8_Rb_treeImSt4pairIKmiESt10_Select1stIS2_ESt4lessImESaIS2_EE10_M_insert_EPKSt18_Rb_tree_node_baseSB_RKS2_
FNDA:0,_ZNSt8_Rb_treeIPvSt4pairIKS0_16_data_access_logESt10_Select1stIS4_ESt4lessIS0_ESaIS4_EE10_M_insert_EPKSt18_Rb_tree_node_baseSD_RKS4_
FNDA:0,_ZNSt8_Rb_treeIPvS0_St9_IdentityIS0_ESt4lessIS0_ESaIS0_EE7_M_copyEPKSt13_Rb_tree_nodeIS0_EPS8_
FNDA:0,_ZNSt8_Rb_treeIiiSt9_IdentityIiESt4lessIiESaIiEE7_M_copyEPKSt13_Rb_tree_nodeIiEPS7_
FNDA:0,_ZNSt8_Rb_treeIiiSt9_IdentityIiESt4lessIiESaIiEE8_M_eraseEPSt13_Rb_tree_nodeIiE
FNDA:0,_ZNSt8_Rb_treeIPvS0_St9_IdentityIS0_ESt4lessIS0_ESaIS0_EE8_M_eraseEPSt13_Rb_tree_nodeIS0_E
FNDA:0,_ZNSt8_Rb_treeImSt4pairIKmiESt10_Select1stIS2_ESt4lessImESaIS2_EE8_M_eraseEPSt13_Rb_tree_nodeIS2_E
FNDA:0,_ZNSt8_Rb_treeIPvSt4pairIKS0_16_data_access_logESt10_Select1stIS4_ESt4lessIS0_ESaIS4_EE8_M_eraseEPSt13_Rb_tree_nodeIS4_E
FNDA:0,_ZNSt8_Rb_treeIPvS0_St9_IdentityIS0_ESt4lessIS0_ESaIS0_EE14_M_lower_boundEPSt13_Rb_tree_nodeIS0_ES9_RKS0_
FNDA:0,_ZNSt8_Rb_treeIiiSt9_IdentityIiESt4lessIiESaIiEE14_M_lower_boundEPSt13_Rb_tree_nodeIiES8_RKi
FNDA:0,_ZNSt8_Rb_treeImSt4pairIKmiESt10_Select1stIS2_ESt4lessImESaIS2_EE14_M_lower_boundEPSt13_Rb_tree_nodeIS2_ESB_RS1_
FNDA:0,_ZNSt8_Rb_treeIPvSt4pairIKS0_16_data_access_logESt10_Select1stIS4_ESt4lessIS0_ESaIS4_EE14_M_lower_boundEPSt13_Rb_tree_nodeIS4_ESD_RS2_
FNDA:0,_ZNSt8_Rb_treeIiiSt9_IdentityIiESt4lessIiESaIiEE14_M_upper_boundEPSt13_Rb_tree_nodeIiES8_RKi
FNDA:0,_ZNSt8_Rb_treeIiiSt9_IdentityIiESt4lessIiESaIiEE11equal_rangeERKi
FNDA:0,_ZNSt8_Rb_treeIPvS0_St9_IdentityIS0_ESt4lessIS0_ESaIS0_EE16_M_insert_uniqueERKS0_
FNDA:0,_ZNSt8_Rb_treeIiiSt9_IdentityIiESt4lessIiESaIiEE16_M_insert_uniqueERKi
FNDA:0,_ZNSt8_Rb_treeImSt4pairIKmiESt10_Select1stIS2_ESt4lessImESaIS2_EE16_M_insert_uniqueERKS2_
FNDA:0,_ZNSt8_Rb_treeIPvSt4pairIKS0_16_data_access_logESt10_Select1stIS4_ESt4lessIS0_ESaIS4_EE16_M_insert_uniqueERKS4_
FNDA:0,_ZNSt8_Rb_treeIiiSt9_IdentityIiESt4lessIiESaIiEE17_M_insert_unique_ESt23_Rb_tree_const_iteratorIiERKi
FNDA:0,_ZNSt8_Rb_treeImSt4pairIKmiESt10_Select1stIS2_ESt4lessImESaIS2_EE17_M_insert_unique_ESt23_Rb_tree_const_iteratorIS2_ERKS2_
FNDA:0,_ZNSt8_Rb_treeIiiSt9_IdentityIiESt4lessIiESaIiEE16_M_insert_uniqueIN9__gnu_cxx17__normal_iteratorIPiSt6vectorIiS4_EEEEEvT_SD_
FNDA:0,_ZNSt8_Rb_treeIiiSt9_IdentityIiESt4lessIiESaIiEE5eraseESt17_Rb_tree_iteratorIiE
FNDA:0,_ZNSt8_Rb_treeIiiSt9_IdentityIiESt4lessIiESaIiEE5eraseERKi
FNDA:0,_ZNSt8_Rb_treeIiiSt9_IdentityIiESt4lessIiESaIiEE5eraseESt17_Rb_tree_iteratorIiES7_
FNDA:0,_ZNSt8_Rb_treeIPvS0_St9_IdentityIS0_ESt4lessIS0_ESaIS0_EE4findERKS0_
FNDA:0,_ZNSt8_Rb_treeIiiSt9_IdentityIiESt4lessIiESaIiEE4findERKi
FNDA:0,_ZNSt8_Rb_treeImSt4pairIKmiESt10_Select1stIS2_ESt4lessImESaIS2_EE4findERS1_
FNDA:0,_ZNSt8_Rb_treeIPvSt4pairIKS0_16_data_access_logESt10_Select1stIS4_ESt4lessIS0_ESaIS4_EE4findERS2_
FNF:202
FNH:0
BRDA:100,9999,0,-
BRDA:100,9999,1,-
BRDA:100,9999,2,-
BRDA:100,9999,3,-
BRDA:101,9999,0,-
BRDA:114,9999,0,-
BRDA:114,9999,1,-
BRDA:114,9999,2,-
BRDA:114,9999,3,-
BRDA:115,9999,0,-
BRDA:167,9999,0,-
BRDA:171,9999,0,-
BRDA:171,9999,1,-
BRDA:171,9999,2,-
BRDA:171,9999,3,-
BRDA:175,9999,0,-
BRDA:179,9999,0,-
BRDA:179,9999,1,-
BRDA:192,9999,0,-
BRDA:192,9999,2,-
BRDA:192,9999,3,-
BRDA:192,9999,5,-
BRDA:199,9999,0,-
BRDA:199,9999,2,-
BRDA:199,9999,4,-
BRDA:199,9999,6,-
BRDA:200,9999,0,-
BRDA:200,9999,1,-
BRDA:200,9999,2,-
BRDA:200,9999,3,-
BRDA:213,9999,0,-
BRDA:213,9999,1,-
BRDA:213,9999,2,-
BRDA:213,9999,3,-
BRDA:217,9999,0,-
BRDA:217,9999,1,-
BRDA:239,9999,0,-
BRDA:239,9999,1,-
BRDA:243,9999,0,-
BRDA:243,9999,1,-
BRDA:246,9999,0,-
BRDA:246,9999,1,-
BRDA:246,9999,2,-
BRDA:250,9999,0,-
BRDA:250,9999,1,-
BRDA:259,9999,0,-
BRDA:259,9999,2,-
BRDA:260,9999,0,-
BRDA:260,9999,1,-
BRDA:267,9999,0,-
BRDA:267,9999,2,-
BRDA:267,9999,3,-
BRDA:267,9999,5,-
BRDA:274,9999,0,-
BRDA:274,9999,2,-
BRDA:275,9999,0,-
BRDA:275,9999,1,-
BRDA:288,9999,0,-
BRDA:288,9999,1,-
BRDA:292,9999,0,-
BRDA:292,9999,1,-
BRDA:350,9999,0,-
BRDA:350,9999,1,-
BRDA:350,9999,2,-
BRDA:350,9999,3,-
BRDA:354,9999,0,-
BRDA:354,9999,2,-
BRDA:354,9999,4,-
BRDA:354,9999,5,-
BRDA:354,9999,7,-
BRDA:354,9999,9,-
BRDA:354,9999,10,-
BRDA:354,9999,12,-
BRDA:354,9999,14,-
BRDA:354,9999,15,-
BRDA:354,9999,17,-
BRDA:354,9999,19,-
BRDA:359,9999,0,-
BRDA:359,9999,2,-
BRDA:359,9999,3,-
BRDA:359,9999,5,-
BRDA:359,9999,6,-
BRDA:359,9999,8,-
BRDA:359,9999,9,-
BRDA:359,9999,11,-
BRDA:363,9999,0,-
BRDA:363,9999,2,-
BRDA:363,9999,3,-
BRDA:363,9999,5,-
BRDA:363,9999,6,-
BRDA:363,9999,8,-
BRDA:363,9999,9,-
BRDA:363,9999,11,-
BRDA:369,9999,0,-
BRDA:369,9999,2,-
BRDA:369,9999,4,-
BRDA:369,9999,6,-
BRDA:371,9999,0,-
BRDA:371,9999,2,-
BRDA:371,9999,4,-
BRDA:371,9999,6,-
BRDA:371,9999,7,-
BRDA:371,9999,9,-
BRDA:371,9999,11,-
BRDA:371,9999,13,-
BRDA:371,9999,14,-
BRDA:371,9999,16,-
BRDA:371,9999,18,-
BRDA:371,9999,20,-
BRDA:371,9999,21,-
BRDA:371,9999,23,-
BRDA:371,9999,24,-
BRDA:371,9999,26,-
BRDA:371,9999,28,-
BRDA:371,9999,30,-
BRDA:372,9999,0,-
BRDA:372,9999,3,-
BRDA:372,9999,4,-
BRDA:372,9999,6,-
BRDA:372,9999,9,-
BRDA:372,9999,10,-
BRDA:372,9999,12,-
BRDA:372,9999,15,-
BRDA:372,9999,16,-
BRDA:374,9999,0,-
BRDA:374,9999,1,-
BRDA:374,9999,3,-
BRDA:374,9999,4,-
BRDA:374,9999,6,-
BRDA:374,9999,7,-
BRDA:375,9999,0,-
BRDA:375,9999,1,-
BRDA:375,9999,2,-
BRDA:377,9999,0,-
BRDA:377,9999,1,-
BRDA:377,9999,2,-
BRDA:377,9999,3,-
BRDA:383,9999,0,-
BRDA:383,9999,2,-
BRDA:383,9999,4,-
BRDA:383,9999,6,-
BRDA:383,9999,8,-
BRDA:383,9999,10,-
BRDA:383,9999,12,-
BRDA:383,9999,14,-
BRDA:383,9999,16,-
BRDA:383,9999,18,-
BRDA:383,9999,20,-
BRDA:383,9999,21,-
BRDA:383,9999,23,-
BRDA:383,9999,25,-
BRDA:384,9999,0,-
BRDA:384,9999,2,-
BRDA:384,9999,4,-
BRDA:384,9999,6,-
BRDA:385,9999,0,-
BRDA:385,9999,1,-
BRDA:385,9999,2,-
BRDA:385,9999,3,-
BRDA:416,9999,0,-
BRDA:416,9999,2,-
BRDA:420,9999,0,-
BRDA:420,9999,1,-
BRDA:427,9999,0,-
BRDA:427,9999,2,-
BRDA:427,9999,3,-
BRDA:427,9999,5,-
BRDA:427,9999,6,-
BRDA:427,9999,8,-
BRDA:427,9999,9,-
BRDA:427,9999,11,-
BRDA:434,9999,0,-
BRDA:434,9999,2,-
BRDA:434,9999,4,-
BRDA:434,9999,6,-
BRDA:435,9999,0,-
BRDA:435,9999,2,-
BRDA:435,9999,3,-
BRDA:435,9999,5,-
BRDA:435,9999,6,-
BRDA:435,9999,8,-
BRDA:435,9999,9,-
BRDA:435,9999,11,-
BRDA:439,9999,0,-
BRDA:439,9999,2,-
BRDA:440,9999,0,-
BRDA:440,9999,2,-
BRDA:440,9999,3,-
BRDA:440,9999,5,-
BRDA:450,9999,0,-
BRDA:450,9999,1,-
BRDA:450,9999,2,-
BRDA:450,9999,3,-
BRDA:458,9999,0,-
BRDA:458,9999,1,-
BRDA:458,9999,2,-
BRDA:458,9999,3,-
BRDA:462,9999,0,-
BRDA:462,9999,1,-
BRDA:466,9999,0,-
BRDA:466,9999,1,-
BRDA:466,9999,2,-
BRDA:466,9999,3,-
BRDA:474,9999,0,-
BRDA:474,9999,1,-
BRDA:474,9999,2,-
BRDA:474,9999,3,-
BRDA:482,9999,0,-
BRDA:482,9999,1,-
BRDA:482,9999,2,-
BRDA:482,9999,3,-
BRDA:488,9999,0,-
BRDA:488,9999,1,-
BRDA:493,9999,0,-
BRDA:493,9999,1,-
BRDA:493,9999,2,-
BRDA:493,9999,3,-
BRDA:501,9999,0,-
BRDA:501,9999,1,-
BRDA:501,9999,2,-
BRDA:501,9999,3,-
BRDA:505,9999,0,-
BRDA:505,9999,2,-
BRDA:505,9999,4,-
BRDA:505,9999,5,-
BRDA:505,9999,7,-
BRDA:505,9999,9,-
BRDA:505,9999,10,-
BRDA:505,9999,12,-
BRDA:505,9999,14,-
BRDA:505,9999,15,-
BRDA:505,9999,17,-
BRDA:505,9999,19,-
BRDA:509,9999,0,-
BRDA:509,9999,1,-
BRDA:509,9999,2,-
BRDA:509,9999,3,-
BRDA:513,9999,0,-
BRDA:513,9999,1,-
BRDA:517,9999,0,-
BRDA:517,9999,1,-
BRDA:517,9999,2,-
BRDA:517,9999,3,-
BRDA:521,9999,0,-
BRDA:521,9999,1,-
BRDA:521,9999,2,-
BRDA:525,9999,0,-
BRDA:525,9999,1,-
BRDA:525,9999,2,-
BRDA:525,9999,3,-
BRDA:529,9999,0,-
BRDA:529,9999,2,-
BRDA:529,9999,4,-
BRDA:529,9999,5,-
BRDA:529,9999,7,-
BRDA:529,9999,9,-
BRDA:529,9999,10,-
BRDA:529,9999,12,-
BRDA:529,9999,14,-
BRDA:529,9999,15,-
BRDA:529,9999,17,-
BRDA:529,9999,19,-
BRDA:533,9999,0,-
BRDA:533,9999,2,-
BRDA:533,9999,3,-
BRDA:533,9999,5,-
BRDA:541,9999,0,-
BRDA:541,9999,2,-
BRDA:541,9999,3,-
BRDA:541,9999,5,-
BRDA:591,9999,0,-
BRDA:591,9999,2,-
BRDA:591,9999,3,-
BRDA:591,9999,5,-
BRDA:591,9999,6,-
BRDA:591,9999,8,-
BRDA:591,9999,9,-
BRDA:591,9999,11,-
BRDA:598,9999,0,-
BRDA:598,9999,2,-
BRDA:598,9999,4,-
BRDA:598,9999,7,-
BRDA:598,9999,9,-
BRDA:598,9999,11,-
BRDA:600,9999,0,-
BRDA:600,9999,2,-
BRDA:600,9999,3,-
BRDA:600,9999,4,-
BRDA:600,9999,6,-
BRDA:600,9999,7,-
BRDA:602,9999,0,-
BRDA:602,9999,2,-
BRDA:602,9999,4,-
BRDA:602,9999,6,-
BRDA:602,9999,7,-
BRDA:602,9999,9,-
BRDA:602,9999,11,-
BRDA:602,9999,13,-
BRDA:602,9999,15,-
BRDA:602,9999,16,-
BRDA:603,9999,0,-
BRDA:603,9999,2,-
BRDA:603,9999,4,-
BRDA:603,9999,6,-
BRDA:603,9999,8,-
BRDA:603,9999,10,-
BRDA:604,9999,0,-
BRDA:604,9999,2,-
BRDA:604,9999,4,-
BRDA:604,9999,6,-
BRDA:604,9999,8,-
BRDA:604,9999,10,-
BRDA:605,9999,0,-
BRDA:605,9999,1,-
BRDA:607,9999,0,-
BRDA:607,9999,1,-
BRDA:614,9999,0,-
BRDA:614,9999,2,-
BRDA:614,9999,3,-
BRDA:614,9999,5,-
BRDA:614,9999,7,-
BRDA:614,9999,8,-
BRDA:614,9999,11,-
BRDA:614,9999,13,-
BRDA:614,9999,14,-
BRDA:614,9999,16,-
BRDA:614,9999,18,-
BRDA:614,9999,19,-
BRDA:614,9999,22,-
BRDA:614,9999,24,-
BRDA:614,9999,25,-
BRDA:614,9999,27,-
BRDA:614,9999,29,-
BRDA:614,9999,30,-
BRDA:614,9999,33,-
BRDA:614,9999,35,-
BRDA:614,9999,36,-
BRDA:614,9999,38,-
BRDA:614,9999,40,-
BRDA:614,9999,41,-
BRDA:621,9999,0,-
BRDA:628,9999,0,-
BRDA:628,9999,2,-
BRDA:628,9999,3,-
BRDA:628,9999,5,-
BRDA:628,9999,6,-
BRDA:628,9999,8,-
BRDA:628,9999,9,-
BRDA:628,9999,11,-
BRDA:635,9999,0,-
BRDA:635,9999,2,-
BRDA:635,9999,3,-
BRDA:635,9999,5,-
BRDA:640,9999,0,-
BRDA:640,9999,2,-
BRDA:640,9999,3,-
BRDA:640,9999,5,-
BRDA:640,9999,6,-
BRDA:640,9999,8,-
BRDA:640,9999,9,-
BRDA:640,9999,11,-
BRDA:646,9999,0,-
BRDA:646,9999,2,-
BRDA:646,9999,3,-
BRDA:646,9999,5,-
BRDA:667,9999,0,-
BRDA:667,9999,1,-
BRDA:667,9999,2,-
BRDA:671,9999,0,-
BRDA:671,9999,1,-
BRDA:744,9999,0,-
BRDA:744,9999,2,-
BRDA:744,9999,4,-
BRDA:744,9999,6,-
BRDA:744,9999,8,-
BRDA:744,9999,10,-
BRDA:744,9999,12,-
BRDA:744,9999,14,-
BRDA:745,9999,0,-
BRDA:745,9999,2,-
BRDA:745,9999,4,-
BRDA:745,9999,6,-
BRDA:745,9999,8,-
BRDA:745,9999,10,-
BRDA:745,9999,12,-
BRDA:745,9999,14,-
BRDA:746,9999,0,-
BRDA:746,9999,2,-
BRDA:746,9999,4,-
BRDA:746,9999,6,-
BRDA:747,9999,0,-
BRDA:747,9999,2,-
BRDA:747,9999,4,-
BRDA:747,9999,6,-
BRDA:747,9999,8,-
BRDA:747,9999,10,-
BRDA:747,9999,12,-
BRDA:747,9999,14,-
BRDA:749,9999,0,-
BRDA:749,9999,1,-
BRDA:749,9999,2,-
BRDA:749,9999,3,-
BRDA:763,9999,0,-
BRDA:763,9999,2,-
BRDA:763,9999,4,-
BRDA:763,9999,6,-
BRDA:873,9999,0,-
BRDA:873,9999,1,-
BRDA:876,9999,0,-
BRDA:878,9999,0,-
BRDA:878,9999,2,-
BRDA:878,9999,3,-
BRDA:880,9999,0,-
BRDA:880,9999,2,-
BRDA:880,9999,4,-
BRDA:880,9999,6,-
BRDA:881,9999,0,-
BRDA:881,9999,2,-
BRDA:881,9999,4,-
BRDA:882,9999,0,-
BRDA:882,9999,2,-
BRDA:882,9999,4,-
BRDA:883,9999,0,-
BRDA:886,9999,0,-
BRDA:897,9999,0,-
BRDA:897,9999,1,-
BRDA:897,9999,2,-
BRDA:897,9999,4,-
BRDA:897,9999,5,-
BRDA:897,9999,6,-
BRDA:897,9999,8,-
BRDA:897,9999,10,-
BRDA:897,9999,12,-
BRDA:897,9999,13,-
BRDA:897,9999,14,-
BRDA:897,9999,15,-
BRDA:897,9999,16,-
BRDA:897,9999,17,-
BRDA:897,9999,18,-
BRDA:897,9999,20,-
BRDA:897,9999,21,-
BRDA:897,9999,22,-
BRDA:897,9999,24,-
BRDA:897,9999,26,-
BRDA:897,9999,28,-
BRDA:897,9999,29,-
BRDA:897,9999,30,-
BRDA:897,9999,31,-
BRDA:897,9999,32,-
BRDA:897,9999,33,-
BRDA:897,9999,34,-
BRDA:897,9999,36,-
BRDA:897,9999,37,-
BRDA:897,9999,38,-
BRDA:897,9999,40,-
BRDA:897,9999,42,-
BRDA:897,9999,44,-
BRDA:897,9999,45,-
BRDA:897,9999,46,-
BRDA:897,9999,47,-
BRDA:897,9999,48,-
BRDA:897,9999,49,-
BRDA:897,9999,50,-
BRDA:897,9999,52,-
BRDA:897,9999,53,-
BRDA:897,9999,54,-
BRDA:897,9999,56,-
BRDA:897,9999,58,-
BRDA:897,9999,60,-
BRDA:897,9999,61,-
BRDA:897,9999,62,-
BRDA:897,9999,63,-
BRDA:899,9999,0,-
BRDA:899,9999,2,-
BRDA:899,9999,4,-
BRDA:899,9999,6,-
BRDA:901,9999,0,-
BRDA:901,9999,2,-
BRDA:901,9999,4,-
BRDA:901,9999,6,-
BRDA:905,9999,0,-
BRDA:905,9999,2,-
BRDA:905,9999,3,-
BRDA:905,9999,5,-
BRDA:905,9999,6,-
BRDA:905,9999,8,-
BRDA:905,9999,9,-
BRDA:905,9999,11,-
BRDA:950,9999,0,-
BRDA:950,9999,2,-
BRDA:955,9999,0,-
BRDA:955,9999,1,-
BRDA:955,9999,2,-
BRDA:955,9999,3,-
BRDA:956,9999,0,-
BRDA:956,9999,2,-
BRDA:956,9999,3,-
BRDA:956,9999,5,-
BRDA:956,9999,6,-
BRDA:956,9999,8,-
BRDA:956,9999,9,-
BRDA:956,9999,11,-
BRDA:958,9999,0,-
BRDA:958,9999,2,-
BRDA:960,9999,0,-
BRDA:960,9999,1,-
BRDA:960,9999,2,-
BRDA:960,9999,3,-
BRDA:960,9999,4,-
BRDA:960,9999,5,-
BRDA:962,9999,0,-
BRDA:962,9999,1,-
BRDA:962,9999,3,-
BRDA:962,9999,4,-
BRDA:965,9999,0,-
BRDA:965,9999,1,-
BRDA:965,9999,2,-
BRDA:965,9999,3,-
BRDA:966,9999,0,-
BRDA:966,9999,2,-
BRDA:966,9999,3,-
BRDA:966,9999,5,-
BRDA:966,9999,6,-
BRDA:966,9999,8,-
BRDA:966,9999,9,-
BRDA:966,9999,11,-
BRDA:968,9999,0,-
BRDA:968,9999,2,-
BRDA:971,9999,0,-
BRDA:971,9999,3,-
BRDA:971,9999,4,-
BRDA:971,9999,6,-
BRDA:971,9999,9,-
BRDA:971,9999,10,-
BRDA:973,9999,0,-
BRDA:973,9999,1,-
BRDA:973,9999,3,-
BRDA:973,9999,4,-
BRDA:974,9999,0,-
BRDA:974,9999,1,-
BRDA:976,9999,0,-
BRDA:976,9999,1,-
BRDA:986,9999,0,-
BRDA:986,9999,1,-
BRDA:986,9999,2,-
BRDA:986,9999,3,-
BRDA:986,9999,4,-
BRDA:986,9999,5,-
BRDA:986,9999,6,-
BRDA:986,9999,7,-
BRDA:986,9999,8,-
BRDA:986,9999,9,-
BRDA:986,9999,10,-
BRDA:986,9999,11,-
BRDA:988,9999,0,-
BRDA:988,9999,2,-
BRDA:988,9999,4,-
BRDA:988,9999,6,-
BRDA:988,9999,8,-
BRDA:988,9999,10,-
BRDA:988,9999,12,-
BRDA:988,9999,14,-
BRDA:989,9999,0,-
BRDA:989,9999,2,-
BRDA:989,9999,4,-
BRDA:989,9999,6,-
BRDA:990,9999,0,-
BRDA:990,9999,2,-
BRDA:990,9999,4,-
BRDA:990,9999,6,-
BRDA:991,9999,0,-
BRDA:991,9999,1,-
BRDA:991,9999,2,-
BRDA:991,9999,3,-
BRDA:993,9999,0,-
BRDA:993,9999,1,-
BRDA:993,9999,2,-
BRDA:993,9999,3,-
BRDA:1003,9999,0,-
BRDA:1003,9999,1,-
BRDA:1003,9999,2,-
BRDA:1003,9999,3,-
BRDA:1003,9999,4,-
BRDA:1003,9999,5,-
BRDA:1003,9999,6,-
BRDA:1003,9999,7,-
BRDA:1003,9999,8,-
BRDA:1003,9999,9,-
BRDA:1003,9999,10,-
BRDA:1003,9999,11,-
BRDA:1004,9999,0,-
BRDA:1004,9999,2,-
BRDA:1004,9999,4,-
BRDA:1004,9999,5,-
BRDA:1004,9999,6,-
BRDA:1004,9999,8,-
BRDA:1004,9999,10,-
BRDA:1004,9999,11,-
BRDA:1004,9999,12,-
BRDA:1004,9999,14,-
BRDA:1004,9999,16,-
BRDA:1004,9999,17,-
BRDA:1004,9999,18,-
BRDA:1004,9999,20,-
BRDA:1004,9999,22,-
BRDA:1004,9999,23,-
BRDA:1005,9999,0,-
BRDA:1005,9999,2,-
BRDA:1005,9999,4,-
BRDA:1005,9999,6,-
BRDA:1007,9999,0,-
BRDA:1007,9999,2,-
BRDA:1007,9999,4,-
BRDA:1007,9999,6,-
BRDA:1008,9999,0,-
BRDA:1008,9999,2,-
BRDA:1008,9999,3,-
BRDA:1008,9999,5,-
BRDA:1008,9999,6,-
BRDA:1008,9999,8,-
BRDA:1008,9999,9,-
BRDA:1008,9999,11,-
BRDA:1035,9999,0,-
BRDA:1035,9999,1,-
BRDA:1035,9999,2,-
BRDA:1036,9999,0,-
BRDA:1036,9999,2,-
BRDA:1036,9999,4,-
BRDA:1036,9999,5,-
BRDA:1037,9999,0,-
BRDA:1039,9999,0,-
BRDA:1040,9999,0,-
BRDA:1040,9999,2,-
BRDA:1068,9999,0,-
BRDA:1069,9999,0,-
BRDA:1070,9999,0,-
BRDA:1070,9999,1,-
BRDA:1070,9999,2,-
BRDA:1072,9999,0,-
BRDA:1072,9999,2,-
BRDA:1072,9999,4,-
BRDA:1072,9999,5,-
BRDA:1073,9999,0,-
BRDA:1074,9999,0,-
BRDA:1074,9999,2,-
BRDA:1074,9999,4,-
BRDA:1074,9999,5,-
BRDA:1075,9999,0,-
BRDA:1079,9999,0,-
BRDA:1080,9999,0,-
BRDA:1083,9999,0,-
BRDA:1083,9999,2,-
BRDA:1083,9999,4,-
BRDA:1087,9999,0,-
BRDA:1087,9999,2,-
BRDA:1087,9999,4,-
BRDA:1087,9999,6,-
BRDA:1178,9999,0,-
BRDA:1178,9999,2,-
BRDA:1178,9999,4,-
BRDA:1178,9999,6,-
BRDA:1179,9999,0,-
BRDA:1179,9999,2,-
BRDA:1179,9999,4,-
BRDA:1179,9999,6,-
BRDA:1181,9999,0,-
BRDA:1181,9999,1,-
BRDA:1181,9999,2,-
BRDA:1181,9999,3,-
BRDA:1181,9999,4,-
BRDA:1181,9999,5,-
BRDA:1181,9999,6,-
BRDA:1181,9999,7,-
BRDA:1181,9999,8,-
BRDA:1181,9999,9,-
BRDA:1181,9999,10,-
BRDA:1181,9999,11,-
BRDA:1184,9999,0,-
BRDA:1184,9999,2,-
BRDA:1184,9999,4,-
BRDA:1184,9999,6,-
BRDA:1184,9999,8,-
BRDA:1184,9999,10,-
BRDA:1184,9999,12,-
BRDA:1184,9999,14,-
BRDA:1184,9999,16,-
BRDA:1184,9999,18,-
BRDA:1184,9999,20,-
BRDA:1184,9999,22,-
BRDA:1185,9999,0,-
BRDA:1185,9999,1,-
BRDA:1185,9999,2,-
BRDA:1185,9999,4,-
BRDA:1185,9999,6,-
BRDA:1185,9999,7,-
BRDA:1185,9999,8,-
BRDA:1185,9999,9,-
BRDA:1185,9999,11,-
BRDA:1185,9999,13,-
BRDA:1185,9999,14,-
BRDA:1185,9999,15,-
BRDA:1185,9999,16,-
BRDA:1185,9999,18,-
BRDA:1185,9999,20,-
BRDA:1185,9999,21,-
BRDA:1185,9999,22,-
BRDA:1185,9999,23,-
BRDA:1185,9999,25,-
BRDA:1185,9999,27,-
BRDA:1187,9999,0,-
BRDA:1187,9999,2,-
BRDA:1187,9999,4,-
BRDA:1187,9999,6,-
BRDA:1188,9999,0,-
BRDA:1188,9999,1,-
BRDA:1188,9999,2,-
BRDA:1188,9999,3,-
BRDA:1188,9999,4,-
BRDA:1188,9999,5,-
BRDA:1188,9999,6,-
BRDA:1188,9999,7,-
BRDA:1190,9999,0,-
BRDA:1190,9999,2,-
BRDA:1190,9999,4,-
BRDA:1190,9999,5,-
BRDA:1190,9999,6,-
BRDA:1190,9999,8,-
BRDA:1190,9999,10,-
BRDA:1190,9999,11,-
BRDA:1190,9999,12,-
BRDA:1190,9999,14,-
BRDA:1190,9999,16,-
BRDA:1190,9999,17,-
BRDA:1190,9999,18,-
BRDA:1190,9999,20,-
BRDA:1190,9999,22,-
BRDA:1190,9999,23,-
BRDA:1191,9999,0,-
BRDA:1191,9999,2,-
BRDA:1191,9999,4,-
BRDA:1191,9999,6,-
BRDA:1191,9999,8,-
BRDA:1191,9999,10,-
BRDA:1191,9999,12,-
BRDA:1191,9999,14,-
BRDA:1193,9999,0,-
BRDA:1193,9999,2,-
BRDA:1193,9999,4,-
BRDA:1193,9999,6,-
BRDA:1195,9999,0,-
BRDA:1195,9999,2,-
BRDA:1195,9999,4,-
BRDA:1195,9999,6,-
BRDA:1195,9999,7,-
BRDA:1195,9999,8,-
BRDA:1195,9999,10,-
BRDA:1195,9999,12,-
BRDA:1195,9999,14,-
BRDA:1195,9999,15,-
BRDA:1195,9999,16,-
BRDA:1195,9999,18,-
BRDA:1195,9999,20,-
BRDA:1195,9999,22,-
BRDA:1195,9999,23,-
BRDA:1195,9999,24,-
BRDA:1195,9999,26,-
BRDA:1195,9999,28,-
BRDA:1195,9999,30,-
BRDA:1195,9999,31,-
BRDA:1196,9999,0,-
BRDA:1196,9999,2,-
BRDA:1196,9999,4,-
BRDA:1196,9999,6,-
BRDA:1196,9999,8,-
BRDA:1196,9999,10,-
BRDA:1196,9999,12,-
BRDA:1196,9999,14,-
BRDA:1197,9999,0,-
BRDA:1197,9999,2,-
BRDA:1197,9999,3,-
BRDA:1197,9999,5,-
BRDA:1197,9999,6,-
BRDA:1197,9999,8,-
BRDA:1197,9999,9,-
BRDA:1197,9999,11,-
BRDA:1224,9999,0,-
BRDA:1224,9999,2,-
BRDA:1224,9999,3,-
BRDA:1224,9999,4,-
BRDA:1224,9999,6,-
BRDA:1224,9999,7,-
BRDA:1226,9999,0,-
BRDA:1226,9999,2,-
BRDA:1226,9999,3,-
BRDA:1226,9999,4,-
BRDA:1226,9999,6,-
BRDA:1226,9999,8,-
BRDA:1226,9999,10,-
BRDA:1226,9999,12,-
BRDA:1226,9999,13,-
BRDA:1226,9999,14,-
BRDA:1226,9999,15,-
BRDA:1226,9999,16,-
BRDA:1226,9999,17,-
BRDA:1226,9999,18,-
BRDA:1226,9999,20,-
BRDA:1226,9999,21,-
BRDA:1226,9999,22,-
BRDA:1226,9999,24,-
BRDA:1226,9999,26,-
BRDA:1226,9999,28,-
BRDA:1226,9999,30,-
BRDA:1226,9999,31,-
BRDA:1226,9999,32,-
BRDA:1226,9999,33,-
BRDA:1226,9999,34,-
BRDA:1226,9999,35,-
BRDA:1229,9999,0,-
BRDA:1229,9999,2,-
BRDA:1229,9999,4,-
BRDA:1229,9999,6,-
BRDA:1231,9999,0,-
BRDA:1231,9999,2,-
BRDA:1231,9999,3,-
BRDA:1231,9999,5,-
BRDA:1233,9999,0,-
BRDA:1233,9999,2,-
BRDA:1233,9999,4,-
BRDA:1233,9999,6,-
BRDA:1233,9999,7,-
BRDA:1233,9999,8,-
BRDA:1233,9999,10,-
BRDA:1233,9999,12,-
BRDA:1233,9999,14,-
BRDA:1233,9999,15,-
BRDA:1238,9999,0,-
BRDA:1238,9999,2,-
BRDA:1238,9999,3,-
BRDA:1238,9999,4,-
BRDA:1238,9999,6,-
BRDA:1238,9999,7,-
BRDA:1239,9999,0,-
BRDA:1239,9999,2,-
BRDA:1239,9999,4,-
BRDA:1239,9999,6,-
BRDA:1239,9999,8,-
BRDA:1239,9999,10,-
BRDA:1240,9999,0,-
BRDA:1240,9999,2,-
BRDA:1240,9999,4,-
BRDA:1240,9999,6,-
BRDA:1240,9999,8,-
BRDA:1240,9999,9,-
BRDA:1240,9999,10,-
BRDA:1240,9999,12,-
BRDA:1240,9999,14,-
BRDA:1240,9999,16,-
BRDA:1240,9999,18,-
BRDA:1240,9999,19,-
BRDA:1243,9999,0,-
BRDA:1243,9999,2,-
BRDA:1243,9999,3,-
BRDA:1243,9999,4,-
BRDA:1243,9999,6,-
BRDA:1243,9999,7,-
BRDA:1244,9999,0,-
BRDA:1244,9999,2,-
BRDA:1247,9999,0,-
BRDA:1247,9999,2,-
BRDA:1250,9999,0,-
BRDA:1250,9999,2,-
BRDA:1250,9999,3,-
BRDA:1250,9999,5,-
BRDA:1252,9999,0,-
BRDA:1252,9999,2,-
BRDA:1252,9999,4,-
BRDA:1252,9999,6,-
BRDA:1252,9999,7,-
BRDA:1252,9999,8,-
BRDA:1252,9999,10,-
BRDA:1252,9999,12,-
BRDA:1252,9999,14,-
BRDA:1252,9999,15,-
BRDA:1257,9999,0,-
BRDA:1257,9999,2,-
BRDA:1257,9999,3,-
BRDA:1257,9999,4,-
BRDA:1257,9999,6,-
BRDA:1257,9999,7,-
BRDA:1258,9999,0,-
BRDA:1258,9999,2,-
BRDA:1258,9999,4,-
BRDA:1258,9999,6,-
BRDA:1259,9999,0,-
BRDA:1259,9999,2,-
BRDA:1259,9999,4,-
BRDA:1259,9999,6,-
BRDA:1259,9999,8,-
BRDA:1259,9999,9,-
BRDA:1259,9999,10,-
BRDA:1259,9999,12,-
BRDA:1259,9999,14,-
BRDA:1259,9999,16,-
BRDA:1259,9999,18,-
BRDA:1259,9999,19,-
BRDA:1262,9999,0,-
BRDA:1262,9999,2,-
BRDA:1262,9999,3,-
BRDA:1262,9999,4,-
BRDA:1262,9999,6,-
BRDA:1262,9999,7,-
BRDA:1263,9999,0,-
BRDA:1263,9999,2,-
BRDA:1265,9999,0,-
BRDA:1265,9999,2,-
BRDA:1268,9999,0,-
BRDA:1268,9999,2,-
BRDA:1268,9999,3,-
BRDA:1268,9999,5,-
BRDA:1273,9999,0,-
BRDA:1273,9999,2,-
BRDA:1273,9999,3,-
BRDA:1273,9999,5,-
BRDA:1337,9999,0,-
BRDA:1337,9999,1,-
BRDA:1337,9999,3,-
BRDA:1337,9999,5,-
BRDA:1337,9999,6,-
BRDA:1338,9999,0,-
BRDA:1338,9999,2,-
BRDA:1338,9999,4,-
BRDA:1338,9999,6,-
BRDA:1339,9999,0,-
BRDA:1400,9999,0,-
BRDA:1401,9999,0,-
BRDA:1403,9999,0,-
BRDA:1426,9999,0,-
BRDA:1427,9999,0,-
BRDA:1428,9999,0,-
BRDA:1429,9999,0,-
BRDA:1429,9999,2,-
BRDA:1481,9999,0,-
BRDA:1481,9999,2,-
BRDA:1481,9999,4,-
BRDA:1481,9999,5,-
BRDA:1481,9999,6,-
BRDA:1481,9999,8,-
BRDA:1481,9999,10,-
BRDA:1481,9999,11,-
BRDA:1481,9999,12,-
BRDA:1481,9999,13,-
BRDA:1481,9999,14,-
BRDA:1481,9999,15,-
BRDA:1482,9999,0,-
BRDA:1484,9999,0,-
BRDA:1484,9999,1,-
BRDA:1484,9999,3,-
BRDA:1484,9999,4,-
BRDA:1485,9999,0,-
BRDA:1485,9999,2,-
BRDA:1486,9999,0,-
BRDA:1519,9999,0,-
BRDA:1519,9999,2,-
BRDA:1519,9999,4,-
BRDA:1519,9999,6,-
BRDA:1519,9999,8,-
BRDA:1519,9999,10,-
BRDA:1519,9999,12,-
BRDA:1519,9999,14,-
BRDA:1519,9999,16,-
BRDA:1519,9999,18,-
BRDA:1519,9999,20,-
BRDA:1519,9999,22,-
BRDA:1522,9999,0,-
BRDA:1522,9999,2,-
BRDA:1522,9999,4,-
BRDA:1522,9999,5,-
BRDA:1522,9999,6,-
BRDA:1522,9999,8,-
BRDA:1522,9999,10,-
BRDA:1522,9999,11,-
BRDA:1522,9999,12,-
BRDA:1522,9999,14,-
BRDA:1522,9999,15,-
BRDA:1522,9999,16,-
BRDA:1522,9999,18,-
BRDA:1522,9999,20,-
BRDA:1522,9999,21,-
BRDA:1522,9999,22,-
BRDA:1522,9999,24,-
BRDA:1522,9999,26,-
BRDA:1522,9999,27,-
BRDA:1522,9999,28,-
BRDA:1522,9999,30,-
BRDA:1522,9999,31,-
BRDA:1522,9999,32,-
BRDA:1522,9999,34,-
BRDA:1522,9999,36,-
BRDA:1522,9999,37,-
BRDA:1522,9999,38,-
BRDA:1522,9999,40,-
BRDA:1522,9999,42,-
BRDA:1522,9999,43,-
BRDA:1522,9999,44,-
BRDA:1522,9999,46,-
BRDA:1522,9999,47,-
BRDA:1522,9999,48,-
BRDA:1522,9999,50,-
BRDA:1522,9999,52,-
BRDA:1522,9999,53,-
BRDA:1522,9999,54,-
BRDA:1522,9999,56,-
BRDA:1522,9999,58,-
BRDA:1522,9999,59,-
BRDA:1522,9999,60,-
BRDA:1522,9999,62,-
BRDA:1522,9999,63,-
BRF:1017
BRH:0
DA:98,0
DA:100,0
DA:101,0
DA:112,0
DA:114,0
DA:115,0
DA:166,0
DA:167,0
DA:170,0
DA:171,0
DA:174,0
DA:175,0
DA:178,0
DA:179,0
DA:189,0
DA:191,0
DA:192,0
DA:197,0
DA:199,0
DA:200,0
DA:212,0
DA:213,0
DA:216,0
DA:217,0
DA:238,0
DA:239,0
DA:242,0
DA:243,0
DA:245,0
DA:246,0
DA:249,0
DA:250,0
DA:257,0
DA:259,0
DA:260,0
DA:264,0
DA:266,0
DA:267,0
DA:272,0
DA:274,0
DA:275,0
DA:287,0
DA:288,0
DA:291,0
DA:292,0
DA:349,0
DA:350,0
DA:353,0
DA:354,0
DA:358,0
DA:359,0
DA:362,0
DA:363,0
DA:367,0
DA:369,0
DA:371,0
DA:372,0
DA:374,0
DA:375,0
DA:377,0
DA:381,0
DA:383,0
DA:384,0
DA:385,0
DA:414,0
DA:416,0
DA:417,0
DA:418,0
DA:419,0
DA:420,0
DA:427,0
DA:432,0
DA:434,0
DA:435,0
DA:437,0
DA:439,0
DA:440,0
DA:444,0
DA:446,0
DA:447,0
DA:448,0
DA:449,0
DA:450,0
DA:457,0
DA:458,0
DA:461,0
DA:462,0
DA:465,0
DA:466,0
DA:473,0
DA:474,0
DA:481,0
DA:482,0
DA:485,0
DA:488,0
DA:492,0
DA:493,0
DA:500,0
DA:501,0
DA:504,0
DA:505,0
DA:508,0
DA:509,0
DA:512,0
DA:513,0
DA:516,0
DA:517,0
DA:520,0
DA:521,0
DA:524,0
DA:525,0
DA:528,0
DA:529,0
DA:532,0
DA:533,0
DA:540,0
DA:541,0
DA:591,0
DA:597,0
DA:598,0
DA:600,0
DA:602,0
DA:603,0
DA:604,0
DA:605,0
DA:607,0
DA:613,0
DA:614,0
DA:621,0
DA:625,0
DA:628,0
DA:632,0
DA:635,0
DA:639,0
DA:640,0
DA:643,0
DA:646,0
DA:666,0
DA:667,0
DA:670,0
DA:671,0
DA:742,0
DA:744,0
DA:745,0
DA:746,0
DA:747,0
DA:748,0
DA:749,0
DA:762,0
DA:763,0
DA:870,0
DA:873,0
DA:876,0
DA:878,0
DA:880,0
DA:881,0
DA:882,0
DA:883,0
DA:886,0
DA:892,0
DA:897,0
DA:899,0
DA:901,0
DA:904,0
DA:905,0
DA:946,0
DA:950,0
DA:951,0
DA:955,0
DA:956,0
DA:957,0
DA:958,0
DA:960,0
DA:962,0
DA:963,0
DA:964,0
DA:965,0
DA:966,0
DA:967,0
DA:968,0
DA:971,0
DA:973,0
DA:974,0
DA:976,0
DA:982,0
DA:986,0
DA:988,0
DA:989,0
DA:990,0
DA:991,0
DA:993,0
DA:999,0
DA:1003,0
DA:1004,0
DA:1005,0
DA:1007,0
DA:1008,0
DA:1031,0
DA:1035,0
DA:1036,0
DA:1037,0
DA:1039,0
DA:1040,0
DA:1065,0
DA:1068,0
DA:1069,0
DA:1070,0
DA:1072,0
DA:1073,0
DA:1074,0
DA:1075,0
DA:1078,0
DA:1079,0
DA:1080,0
DA:1083,0
DA:1087,0
DA:1175,0
DA:1178,0
DA:1179,0
DA:1180,0
DA:1181,0
DA:1183,0
DA:1184,0
DA:1185,0
DA:1187,0
DA:1188,0
DA:1190,0
DA:1191,0
DA:1193,0
DA:1195,0
DA:1196,0
DA:1197,0
DA:1220,0
DA:1224,0
DA:1226,0
DA:1229,0
DA:1231,0
DA:1233,0
DA:1237,0
DA:1238,0
DA:1239,0
DA:1240,0
DA:1243,0
DA:1244,0
DA:1247,0
DA:1250,0
DA:1252,0
DA:1256,0
DA:1257,0
DA:1258,0
DA:1259,0
DA:1262,0
DA:1263,0
DA:1265,0
DA:1268,0
DA:1273,0
DA:1334,0
DA:1337,0
DA:1338,0
DA:1339,0
DA:1394,0
DA:1400,0
DA:1401,0
DA:1402,0
DA:1403,0
DA:1423,0
DA:1426,0
DA:1427,0
DA:1428,0
DA:1429,0
DA:1478,0
DA:1481,0
DA:1482,0
DA:1484,0
DA:1485,0
DA:1486,0
DA:1516,0
DA:1519,0
DA:1522,0
LF:279
LH:0
end_of_record
SF:/usr/include/c++/4.5/bits/stl_uninitialized.h
FN:67,_ZNSt20__uninitialized_copyILb0EE18uninitialized_copyIP17_loop_spec_threadS3_EET0_T_S5_S4_
FN:90,_ZNSt20__uninitialized_copyILb1EE18uninitialized_copyISt23_Rb_tree_const_iteratorIiEPiEET0_T_S6_S5_
FN:90,_ZNSt20__uninitialized_copyILb1EE18uninitialized_copyIPPvS3_EET0_T_S5_S4_
FN:90,_ZNSt20__uninitialized_copyILb1EE18uninitialized_copyIPPFPvS2_ES5_EET0_T_S7_S6_
FN:90,_ZNSt20__uninitialized_copyILb1EE18uninitialized_copyIN9__gnu_cxx17__normal_iteratorIPKPFPvS4_ESt6vectorIS6_SaIS6_EEEEPS6_EET0_T_SF_SE_
FN:90,_ZNSt20__uninitialized_copyILb1EE18uninitialized_copyIN9__gnu_cxx17__normal_iteratorIPKPvSt6vectorIS4_SaIS4_EEEEPS4_EET0_T_SD_SC_
FN:90,_ZNSt20__uninitialized_copyILb1EE18uninitialized_copyIN9__gnu_cxx17__normal_iteratorIPKiSt6vectorIiSaIiEEEEPiEET0_T_SC_SB_
FN:90,_ZNSt20__uninitialized_copyILb1EE18uninitialized_copyIN9__gnu_cxx17__normal_iteratorIPiSt6vectorIiSaIiEEEES4_EET0_T_SA_S9_
FN:90,_ZNSt20__uninitialized_copyILb1EE18uninitialized_copyIPiS2_EET0_T_S4_S3_
FN:106,_ZSt18uninitialized_copyIPPFPvS0_ES3_ET0_T_S5_S4_
FN:106,_ZSt18uninitialized_copyIN9__gnu_cxx17__normal_iteratorIPKPvSt6vectorIS2_SaIS2_EEEEPS2_ET0_T_SB_SA_
FN:106,_ZSt18uninitialized_copyIN9__gnu_cxx17__normal_iteratorIPKiSt6vectorIiSaIiEEEEPiET0_T_SA_S9_
FN:106,_ZSt18uninitialized_copyIPPvS1_ET0_T_S3_S2_
FN:106,_ZSt18uninitialized_copyIPiS0_ET0_T_S2_S1_
FN:106,_ZSt18uninitialized_copyIN9__gnu_cxx17__normal_iteratorIPiSt6vectorIiSaIiEEEES2_ET0_T_S8_S7_
FN:106,_ZSt18uninitialized_copyISt23_Rb_tree_const_iteratorIiEPiET0_T_S4_S3_
FN:106,_ZSt18uninitialized_copyIN9__gnu_cxx17__normal_iteratorIPKPFPvS2_ESt6vectorIS4_SaIS4_EEEEPS4_ET0_T_SD_SC_
FN:106,_ZSt18uninitialized_copyIP17_loop_spec_threadS1_ET0_T_S3_S2_
FN:241,_ZNSt22__uninitialized_fill_nILb0EE20uninitialized_fill_nIP17_loop_spec_threadjS2_EEvT_T0_RKT1_
FN:279,_ZSt20uninitialized_fill_nIP17_loop_spec_threadjS0_EvT_T0_RKT1_
FN:316,_ZSt22__uninitialized_copy_aIN9__gnu_cxx17__normal_iteratorIPKPvSt6vectorIS2_SaIS2_EEEEPS2_S2_ET0_T_SB_SA_RSaIT1_E
FN:316,_ZSt22__uninitialized_copy_aIP17_loop_spec_threadS1_S0_ET0_T_S3_S2_RSaIT1_E
FN:316,_ZSt22__uninitialized_copy_aIPPFPvS0_ES3_S2_ET0_T_S5_S4_RSaIT1_E
FN:316,_ZSt22__uninitialized_copy_aIN9__gnu_cxx17__normal_iteratorIPKPFPvS2_ESt6vectorIS4_SaIS4_EEEEPS4_S4_ET0_T_SD_SC_RSaIT1_E
FN:316,_ZSt22__uninitialized_copy_aIPiS0_iET0_T_S2_S1_RSaIT1_E
FN:316,_ZSt22__uninitialized_copy_aIPPvS1_S0_ET0_T_S3_S2_RSaIT1_E
FN:316,_ZSt22__uninitialized_copy_aIN9__gnu_cxx17__normal_iteratorIPKiSt6vectorIiSaIiEEEEPiiET0_T_SA_S9_RSaIT1_E
FN:316,_ZSt22__uninitialized_copy_aISt23_Rb_tree_const_iteratorIiEPiiET0_T_S4_S3_RSaIT1_E
FN:316,_ZSt22__uninitialized_copy_aIN9__gnu_cxx17__normal_iteratorIPiSt6vectorIiSaIiEEEES2_iET0_T_S8_S7_RSaIT1_E
FN:323,_ZSt22__uninitialized_move_aIP17_loop_spec_threadS1_SaIS0_EET0_T_S4_S3_RT1_
FN:323,_ZSt22__uninitialized_move_aIPiS0_SaIiEET0_T_S3_S2_RT1_
FN:323,_ZSt22__uninitialized_move_aIPPFPvS0_ES3_SaIS2_EET0_T_S6_S5_RT1_
FN:323,_ZSt22__uninitialized_move_aIPPvS1_SaIS0_EET0_T_S4_S3_RT1_
FN:377,_ZSt24__uninitialized_fill_n_aIP17_loop_spec_threadjS0_S0_EvT_T0_RKT1_RSaIT2_E
FNDA:0,_ZNSt20__uninitialized_copyILb0EE18uninitialized_copyIP17_loop_spec_threadS3_EET0_T_S5_S4_
FNDA:0,_ZNSt20__uninitialized_copyILb1EE18uninitialized_copyIPiS2_EET0_T_S4_S3_
FNDA:0,_ZNSt20__uninitialized_copyILb1EE18uninitialized_copyIN9__gnu_cxx17__normal_iteratorIPKiSt6vectorIiSaIiEEEEPiEET0_T_SC_SB_
FNDA:0,_ZNSt20__uninitialized_copyILb1EE18uninitialized_copyISt23_Rb_tree_const_iteratorIiEPiEET0_T_S6_S5_
FNDA:0,_ZNSt20__uninitialized_copyILb1EE18uninitialized_copyIN9__gnu_cxx17__normal_iteratorIPiSt6vectorIiSaIiEEEES4_EET0_T_SA_S9_
FNDA:0,_ZNSt20__uninitialized_copyILb1EE18uninitialized_copyIPPvS3_EET0_T_S5_S4_
FNDA:0,_ZNSt20__uninitialized_copyILb1EE18uninitialized_copyIPPFPvS2_ES5_EET0_T_S7_S6_
FNDA:0,_ZNSt20__uninitialized_copyILb1EE18uninitialized_copyIN9__gnu_cxx17__normal_iteratorIPKPFPvS4_ESt6vectorIS6_SaIS6_EEEEPS6_EET0_T_SF_SE_
FNDA:0,_ZNSt20__uninitialized_copyILb1EE18uninitialized_copyIN9__gnu_cxx17__normal_iteratorIPKPvSt6vectorIS4_SaIS4_EEEEPS4_EET0_T_SD_SC_
FNDA:0,_ZSt18uninitialized_copyIPiS0_ET0_T_S2_S1_
FNDA:0,_ZSt18uninitialized_copyIN9__gnu_cxx17__normal_iteratorIPKiSt6vectorIiSaIiEEEEPiET0_T_SA_S9_
FNDA:0,_ZSt18uninitialized_copyIP17_loop_spec_threadS1_ET0_T_S3_S2_
FNDA:0,_ZSt18uninitialized_copyISt23_Rb_tree_const_iteratorIiEPiET0_T_S4_S3_
FNDA:0,_ZSt18uninitialized_copyIN9__gnu_cxx17__normal_iteratorIPiSt6vectorIiSaIiEEEES2_ET0_T_S8_S7_
FNDA:0,_ZSt18uninitialized_copyIPPvS1_ET0_T_S3_S2_
FNDA:0,_ZSt18uninitialized_copyIPPFPvS0_ES3_ET0_T_S5_S4_
FNDA:0,_ZSt18uninitialized_copyIN9__gnu_cxx17__normal_iteratorIPKPFPvS2_ESt6vectorIS4_SaIS4_EEEEPS4_ET0_T_SD_SC_
FNDA:0,_ZSt18uninitialized_copyIN9__gnu_cxx17__normal_iteratorIPKPvSt6vectorIS2_SaIS2_EEEEPS2_ET0_T_SB_SA_
FNDA:0,_ZNSt22__uninitialized_fill_nILb0EE20uninitialized_fill_nIP17_loop_spec_threadjS2_EEvT_T0_RKT1_
FNDA:0,_ZSt20uninitialized_fill_nIP17_loop_spec_threadjS0_EvT_T0_RKT1_
FNDA:0,_ZSt22__uninitialized_copy_aIPiS0_iET0_T_S2_S1_RSaIT1_E
FNDA:0,_ZSt22__uninitialized_copy_aIN9__gnu_cxx17__normal_iteratorIPKiSt6vectorIiSaIiEEEEPiiET0_T_SA_S9_RSaIT1_E
FNDA:0,_ZSt22__uninitialized_copy_aIP17_loop_spec_threadS1_S0_ET0_T_S3_S2_RSaIT1_E
FNDA:0,_ZSt22__uninitialized_copy_aISt23_Rb_tree_const_iteratorIiEPiiET0_T_S4_S3_RSaIT1_E
FNDA:0,_ZSt22__uninitialized_copy_aIN9__gnu_cxx17__normal_iteratorIPiSt6vectorIiSaIiEEEES2_iET0_T_S8_S7_RSaIT1_E
FNDA:0,_ZSt22__uninitialized_copy_aIPPvS1_S0_ET0_T_S3_S2_RSaIT1_E
FNDA:0,_ZSt22__uninitialized_copy_aIPPFPvS0_ES3_S2_ET0_T_S5_S4_RSaIT1_E
FNDA:0,_ZSt22__uninitialized_copy_aIN9__gnu_cxx17__normal_iteratorIPKPFPvS2_ESt6vectorIS4_SaIS4_EEEEPS4_S4_ET0_T_SD_SC_RSaIT1_E
FNDA:0,_ZSt22__uninitialized_copy_aIN9__gnu_cxx17__normal_iteratorIPKPvSt6vectorIS2_SaIS2_EEEEPS2_S2_ET0_T_SB_SA_RSaIT1_E
FNDA:0,_ZSt22__uninitialized_move_aIPiS0_SaIiEET0_T_S3_S2_RT1_
FNDA:0,_ZSt22__uninitialized_move_aIP17_loop_spec_threadS1_SaIS0_EET0_T_S4_S3_RT1_
FNDA:0,_ZSt22__uninitialized_move_aIPPvS1_SaIS0_EET0_T_S4_S3_RT1_
FNDA:0,_ZSt22__uninitialized_move_aIPPFPvS0_ES3_SaIS2_EET0_T_S6_S5_RT1_
FNDA:0,_ZSt24__uninitialized_fill_n_aIP17_loop_spec_threadjS0_S0_EvT_T0_RKT1_RSaIT2_E
FNF:34
FNH:0
BRDA:73,9999,0,-
BRDA:73,9999,1,-
BRDA:73,9999,2,-
BRDA:73,9999,3,-
BRDA:74,9999,0,-
BRDA:74,9999,1,-
BRDA:75,9999,0,-
BRDA:77,9999,0,-
BRDA:77,9999,3,-
BRDA:77,9999,4,-
BRDA:79,9999,0,-
BRDA:79,9999,1,-
BRDA:80,9999,0,-
BRDA:92,9999,0,-
BRDA:92,9999,2,-
BRDA:92,9999,3,-
BRDA:92,9999,5,-
BRDA:92,9999,6,-
BRDA:92,9999,8,-
BRDA:92,9999,9,-
BRDA:92,9999,11,-
BRDA:92,9999,12,-
BRDA:92,9999,14,-
BRDA:92,9999,15,-
BRDA:92,9999,17,-
BRDA:92,9999,18,-
BRDA:92,9999,20,-
BRDA:92,9999,21,-
BRDA:92,9999,23,-
BRDA:116,9999,0,-
BRDA:116,9999,2,-
BRDA:116,9999,3,-
BRDA:116,9999,5,-
BRDA:116,9999,6,-
BRDA:116,9999,8,-
BRDA:116,9999,9,-
BRDA:116,9999,11,-
BRDA:116,9999,12,-
BRDA:116,9999,14,-
BRDA:116,9999,15,-
BRDA:116,9999,17,-
BRDA:116,9999,18,-
BRDA:116,9999,20,-
BRDA:116,9999,21,-
BRDA:116,9999,23,-
BRDA:116,9999,24,-
BRDA:116,9999,26,-
BRDA:247,9999,0,-
BRDA:247,9999,1,-
BRDA:247,9999,2,-
BRDA:247,9999,3,-
BRDA:248,9999,0,-
BRDA:248,9999,1,-
BRDA:250,9999,0,-
BRDA:250,9999,3,-
BRDA:250,9999,4,-
BRDA:252,9999,0,-
BRDA:252,9999,1,-
BRDA:253,9999,0,-
BRDA:255,9999,0,-
BRDA:284,9999,0,-
BRDA:286,9999,0,-
BRDA:318,9999,0,-
BRDA:318,9999,2,-
BRDA:318,9999,3,-
BRDA:318,9999,5,-
BRDA:318,9999,6,-
BRDA:318,9999,8,-
BRDA:318,9999,9,-
BRDA:318,9999,11,-
BRDA:318,9999,12,-
BRDA:318,9999,14,-
BRDA:318,9999,15,-
BRDA:318,9999,17,-
BRDA:318,9999,18,-
BRDA:318,9999,20,-
BRDA:318,9999,21,-
BRDA:318,9999,23,-
BRDA:318,9999,24,-
BRDA:318,9999,26,-
BRDA:328,9999,0,-
BRDA:328,9999,2,-
BRDA:328,9999,3,-
BRDA:328,9999,5,-
BRDA:328,9999,6,-
BRDA:328,9999,8,-
BRDA:328,9999,9,-
BRDA:328,9999,11,-
BRDA:379,9999,0,-
BRDA:379,9999,2,-
BRF:90
BRH:0
DA:67,0
DA:70,0
DA:73,0
DA:74,0
DA:75,0
DA:77,0
DA:79,0
DA:80,0
DA:90,0
DA:92,0
DA:106,0
DA:116,0
DA:241,0
DA:244,0
DA:247,0
DA:248,0
DA:250,0
DA:252,0
DA:253,0
DA:255,0
DA:279,0
DA:284,0
DA:286,0
DA:316,0
DA:318,0
DA:323,0
DA:328,0
DA:377,0
DA:379,0
LF:29
LH:0
end_of_record
SF:/usr/include/c++/4.5/bits/stl_vector.h
FN:75,_ZNSt12_Vector_baseIPvSaIS0_EE12_Vector_implD2Ev
FN:75,_ZNSt12_Vector_baseIiSaIiEE12_Vector_implD2Ev
FN:75,_ZNSt12_Vector_baseIPFPvS0_ESaIS2_EE12_Vector_implD2Ev
FN:75,_ZNSt12_Vector_baseI17_loop_spec_threadSaIS0_EE12_Vector_implD2Ev
FN:80,_ZNSt12_Vector_baseIPvSaIS0_EE12_Vector_implC2Ev
FN:80,_ZNSt12_Vector_baseIPFPvS0_ESaIS2_EE12_Vector_implC2Ev
FN:80,_ZNSt12_Vector_baseIiSaIiEE12_Vector_implC2Ev
FN:80,_ZNSt12_Vector_baseI17_loop_spec_threadSaIS0_EE12_Vector_implC2Ev
FN:84,_ZNSt12_Vector_baseIiSaIiEE12_Vector_implC2ERKS0_
FN:84,_ZNSt12_Vector_baseIPFPvS0_ESaIS2_EE12_Vector_implC2ERKS3_
FN:84,_ZNSt12_Vector_baseIPvSaIS0_EE12_Vector_implC2ERKS1_
FN:93,_ZNSt12_Vector_baseIPFPvS0_ESaIS2_EE19_M_get_Tp_allocatorEv
FN:93,_ZNSt12_Vector_baseIPvSaIS0_EE19_M_get_Tp_allocatorEv
FN:93,_ZNSt12_Vector_baseIiSaIiEE19_M_get_Tp_allocatorEv
FN:93,_ZNSt12_Vector_baseI17_loop_spec_threadSaIS0_EE19_M_get_Tp_allocatorEv
FN:97,_ZNKSt12_Vector_baseIPvSaIS0_EE19_M_get_Tp_allocatorEv
FN:97,_ZNKSt12_Vector_baseIPFPvS0_ESaIS2_EE19_M_get_Tp_allocatorEv
FN:97,_ZNKSt12_Vector_baseI17_loop_spec_threadSaIS0_EE19_M_get_Tp_allocatorEv
FN:97,_ZNKSt12_Vector_baseIiSaIiEE19_M_get_Tp_allocatorEv
FN:104,_ZNSt12_Vector_baseIiSaIiEEC2Ev
FN:104,_ZNSt12_Vector_baseI17_loop_spec_threadSaIS0_EEC2Ev
FN:104,_ZNSt12_Vector_baseIPvSaIS0_EEC2Ev
FN:104,_ZNSt12_Vector_baseIPFPvS0_ESaIS2_EEC2Ev
FN:110,_ZNSt12_Vector_baseIiSaIiEEC2EjRKS0_
FN:110,_ZNSt12_Vector_baseIPvSaIS0_EEC2EjRKS1_
FN:110,_ZNSt12_Vector_baseIPFPvS0_ESaIS2_EEC2EjRKS3_
FN:131,_ZNSt12_Vector_baseIPFPvS0_ESaIS2_EED2Ev
FN:131,_ZNSt12_Vector_baseI17_loop_spec_threadSaIS0_EED2Ev
FN:131,_ZNSt12_Vector_baseIPvSaIS0_EED2Ev
FN:131,_ZNSt12_Vector_baseIiSaIiEED2Ev
FN:139,_ZNSt12_Vector_baseIPvSaIS0_EE11_M_allocateEj
FN:139,_ZNSt12_Vector_baseIiSaIiEE11_M_allocateEj
FN:139,_ZNSt12_Vector_baseIPFPvS0_ESaIS2_EE11_M_allocateEj
FN:139,_ZNSt12_Vector_baseI17_loop_spec_threadSaIS0_EE11_M_allocateEj
FN:143,_ZNSt12_Vector_baseIiSaIiEE13_M_deallocateEPij
FN:143,_ZNSt12_Vector_baseIPvSaIS0_EE13_M_deallocateEPS0_j
FN:143,_ZNSt12_Vector_baseIPFPvS0_ESaIS2_EE13_M_deallocateEPS2_j
FN:143,_ZNSt12_Vector_baseI17_loop_spec_threadSaIS0_EE13_M_deallocateEPS0_j
FN:207,_ZNSt6vectorIPvSaIS0_EEC2Ev
FN:207,_ZNSt6vectorIPFPvS0_ESaIS2_EEC2Ev
FN:207,_ZNSt6vectorIiSaIiEEC2Ev
FN:207,_ZNSt6vectorI17_loop_spec_threadSaIS0_EEC2Ev
FN:241,_ZNSt6vectorIiSaIiEEC2ERKS1_
FN:241,_ZNSt6vectorIPFPvS0_ESaIS2_EEC2ERKS4_
FN:241,_ZNSt6vectorIPvSaIS0_EEC2ERKS2_
FN:312,_ZNSt6vectorIiSaIiEED2Ev
FN:312,_ZNSt6vectorI17_loop_spec_threadSaIS0_EED2Ev
FN:312,_ZNSt6vectorIPvSaIS0_EED2Ev
FN:312,_ZNSt6vectorIPFPvS0_ESaIS2_EED2Ev
FN:426,_ZNSt6vectorIiSaIiEE5beginEv
FN:426,_ZNSt6vectorI17_loop_spec_threadSaIS0_EE5beginEv
FN:426,_ZNSt6vectorIPvSaIS0_EE5beginEv
FN:426,_ZNSt6vectorIPFPvS0_ESaIS2_EE5beginEv
FN:435,_ZNKSt6vectorIiSaIiEE5beginEv
FN:435,_ZNKSt6vectorIPFPvS0_ESaIS2_EE5beginEv
FN:435,_ZNKSt6vectorIPvSaIS0_EE5beginEv
FN:435,_ZNKSt6vectorI17_loop_spec_threadSaIS0_EE5beginEv
FN:444,_ZNSt6vectorIiSaIiEE3endEv
FN:444,_ZNSt6vectorI17_loop_spec_threadSaIS0_EE3endEv
FN:444,_ZNSt6vectorIPFPvS0_ESaIS2_EE3endEv
FN:444,_ZNSt6vectorIPvSaIS0_EE3endEv
FN:453,_ZNKSt6vectorIPFPvS0_ESaIS2_EE3endEv
FN:453,_ZNKSt6vectorI17_loop_spec_threadSaIS0_EE3endEv
FN:453,_ZNKSt6vectorIPvSaIS0_EE3endEv
FN:453,_ZNKSt6vectorIiSaIiEE3endEv
FN:533,_ZNKSt6vectorIPFPvS0_ESaIS2_EE4sizeEv
FN:533,_ZNKSt6vectorIiSaIiEE4sizeEv
FN:533,_ZNKSt6vectorI17_loop_spec_threadSaIS0_EE4sizeEv
FN:533,_ZNKSt6vectorIPvSaIS0_EE4sizeEv
FN:538,_ZNKSt6vectorIPFPvS0_ESaIS2_EE8max_sizeEv
FN:538,_ZNKSt6vectorI17_loop_spec_threadSaIS0_EE8max_sizeEv
FN:538,_ZNKSt6vectorIPvSaIS0_EE8max_sizeEv
FN:538,_ZNKSt6vectorIiSaIiEE8max_sizeEv
FN:553,_ZNSt6vectorI17_loop_spec_threadSaIS0_EE6resizeEjS0_
FN:573,_ZNKSt6vectorIiSaIiEE8capacityEv
FN:582,_ZNKSt6vectorIiSaIiEE5emptyEv
FN:582,_ZNKSt6vectorI17_loop_spec_threadSaIS0_EE5emptyEv
FN:618,_ZNSt6vectorIPFPvS0_ESaIS2_EEixEj
FN:618,_ZNSt6vectorIPvSaIS0_EEixEj
FN:618,_ZNSt6vectorI17_loop_spec_threadSaIS0_EEixEj
FN:618,_ZNSt6vectorIiSaIiEEixEj
FN:741,_ZNSt6vectorIiSaIiEE9push_backERKi
FN:741,_ZNSt6vectorIPFPvS0_ESaIS2_EE9push_backERKS2_
FN:741,_ZNSt6vectorIPvSaIS0_EE9push_backERKS0_
FN:858,_ZNSt6vectorI17_loop_spec_threadSaIS0_EE6insertEN9__gnu_cxx17__normal_iteratorIPS0_S2_EEjRKS0_
FN:877,_ZNSt6vectorIiSaIiEE6insertISt23_Rb_tree_const_iteratorIiEEEvN9__gnu_cxx17__normal_iteratorIPiS1_EET_S9_
FN:877,_ZNSt6vectorIiSaIiEE6insertIN9__gnu_cxx17__normal_iteratorIPiS1_EEEEvS6_T_S7_
FN:954,_ZNSt6vectorI17_loop_spec_threadSaIS0_EE5clearEv
FN:954,_ZNSt6vectorIPFPvS0_ESaIS2_EE5clearEv
FN:954,_ZNSt6vectorIPvSaIS0_EE5clearEv
FN:964,_ZNSt6vectorIiSaIiEE20_M_allocate_and_copyIN9__gnu_cxx17__normal_iteratorIPKiS1_EEEEPijT_S9_
FN:1101,_ZNSt6vectorIiSaIiEE18_M_insert_dispatchIN9__gnu_cxx17__normal_iteratorIPiS1_EEEEvS6_T_S7_St12__false_type
FN:1101,_ZNSt6vectorIiSaIiEE18_M_insert_dispatchISt23_Rb_tree_const_iteratorIiEEEvN9__gnu_cxx17__normal_iteratorIPiS1_EET_S9_St12__false_type
FN:1138,_ZNKSt6vectorIPFPvS0_ESaIS2_EE12_M_check_lenEjPKc
FN:1138,_ZNKSt6vectorIiSaIiEE12_M_check_lenEjPKc
FN:1138,_ZNKSt6vectorIPvSaIS0_EE12_M_check_lenEjPKc
FN:1138,_ZNKSt6vectorI17_loop_spec_threadSaIS0_EE12_M_check_lenEjPKc
FN:1152,_ZNSt6vectorI17_loop_spec_threadSaIS0_EE15_M_erase_at_endEPS0_
FN:1152,_ZNSt6vectorIPvSaIS0_EE15_M_erase_at_endEPS0_
FN:1152,_ZNSt6vectorIPFPvS0_ESaIS2_EE15_M_erase_at_endEPS2_
FNDA:0,_ZNSt12_Vector_baseIiSaIiEE12_Vector_implD2Ev
FNDA:0,_ZNSt12_Vector_baseIPvSaIS0_EE12_Vector_implD2Ev
FNDA:0,_ZNSt12_Vector_baseI17_loop_spec_threadSaIS0_EE12_Vector_implD2Ev
FNDA:0,_ZNSt12_Vector_baseIPFPvS0_ESaIS2_EE12_Vector_implD2Ev
FNDA:0,_ZNSt12_Vector_baseIiSaIiEE12_Vector_implC2Ev
FNDA:0,_ZNSt12_Vector_baseIPvSaIS0_EE12_Vector_implC2Ev
FNDA:0,_ZNSt12_Vector_baseI17_loop_spec_threadSaIS0_EE12_Vector_implC2Ev
FNDA:0,_ZNSt12_Vector_baseIPFPvS0_ESaIS2_EE12_Vector_implC2Ev
FNDA:0,_ZNSt12_Vector_baseIiSaIiEE12_Vector_implC2ERKS0_
FNDA:0,_ZNSt12_Vector_baseIPFPvS0_ESaIS2_EE12_Vector_implC2ERKS3_
FNDA:0,_ZNSt12_Vector_baseIPvSaIS0_EE12_Vector_implC2ERKS1_
FNDA:0,_ZNSt12_Vector_baseIiSaIiEE19_M_get_Tp_allocatorEv
FNDA:0,_ZNSt12_Vector_baseIPvSaIS0_EE19_M_get_Tp_allocatorEv
FNDA:0,_ZNSt12_Vector_baseI17_loop_spec_threadSaIS0_EE19_M_get_Tp_allocatorEv
FNDA:0,_ZNSt12_Vector_baseIPFPvS0_ESaIS2_EE19_M_get_Tp_allocatorEv
FNDA:0,_ZNKSt12_Vector_baseIiSaIiEE19_M_get_Tp_allocatorEv
FNDA:0,_ZNKSt12_Vector_baseIPFPvS0_ESaIS2_EE19_M_get_Tp_allocatorEv
FNDA:0,_ZNKSt12_Vector_baseIPvSaIS0_EE19_M_get_Tp_allocatorEv
FNDA:0,_ZNKSt12_Vector_baseI17_loop_spec_threadSaIS0_EE19_M_get_Tp_allocatorEv
FNDA:0,_ZNSt12_Vector_baseIiSaIiEEC2Ev
FNDA:0,_ZNSt12_Vector_baseIPvSaIS0_EEC2Ev
FNDA:0,_ZNSt12_Vector_baseI17_loop_spec_threadSaIS0_EEC2Ev
FNDA:0,_ZNSt12_Vector_baseIPFPvS0_ESaIS2_EEC2Ev
FNDA:0,_ZNSt12_Vector_baseIiSaIiEEC2EjRKS0_
FNDA:0,_ZNSt12_Vector_baseIPFPvS0_ESaIS2_EEC2EjRKS3_
FNDA:0,_ZNSt12_Vector_baseIPvSaIS0_EEC2EjRKS1_
FNDA:0,_ZNSt12_Vector_baseIiSaIiEED2Ev
FNDA:0,_ZNSt12_Vector_baseIPvSaIS0_EED2Ev
FNDA:0,_ZNSt12_Vector_baseI17_loop_spec_threadSaIS0_EED2Ev
FNDA:0,_ZNSt12_Vector_baseIPFPvS0_ESaIS2_EED2Ev
FNDA:0,_ZNSt12_Vector_baseIiSaIiEE11_M_allocateEj
FNDA:0,_ZNSt12_Vector_baseIPFPvS0_ESaIS2_EE11_M_allocateEj
FNDA:0,_ZNSt12_Vector_baseIPvSaIS0_EE11_M_allocateEj
FNDA:0,_ZNSt12_Vector_baseI17_loop_spec_threadSaIS0_EE11_M_allocateEj
FNDA:0,_ZNSt12_Vector_baseIiSaIiEE13_M_deallocateEPij
FNDA:0,_ZNSt12_Vector_baseIPvSaIS0_EE13_M_deallocateEPS0_j
FNDA:0,_ZNSt12_Vector_baseI17_loop_spec_threadSaIS0_EE13_M_deallocateEPS0_j
FNDA:0,_ZNSt12_Vector_baseIPFPvS0_ESaIS2_EE13_M_deallocateEPS2_j
FNDA:0,_ZNSt6vectorIiSaIiEEC2Ev
FNDA:0,_ZNSt6vectorIPvSaIS0_EEC2Ev
FNDA:0,_ZNSt6vectorI17_loop_spec_threadSaIS0_EEC2Ev
FNDA:0,_ZNSt6vectorIPFPvS0_ESaIS2_EEC2Ev
FNDA:0,_ZNSt6vectorIiSaIiEEC2ERKS1_
FNDA:0,_ZNSt6vectorIPFPvS0_ESaIS2_EEC2ERKS4_
FNDA:0,_ZNSt6vectorIPvSaIS0_EEC2ERKS2_
FNDA:0,_ZNSt6vectorIiSaIiEED2Ev
FNDA:0,_ZNSt6vectorIPvSaIS0_EED2Ev
FNDA:0,_ZNSt6vectorIPFPvS0_ESaIS2_EED2Ev
FNDA:0,_ZNSt6vectorI17_loop_spec_threadSaIS0_EED2Ev
FNDA:0,_ZNSt6vectorIiSaIiEE5beginEv
FNDA:0,_ZNSt6vectorIPvSaIS0_EE5beginEv
FNDA:0,_ZNSt6vectorIPFPvS0_ESaIS2_EE5beginEv
FNDA:0,_ZNSt6vectorI17_loop_spec_threadSaIS0_EE5beginEv
FNDA:0,_ZNKSt6vectorIiSaIiEE5beginEv
FNDA:0,_ZNKSt6vectorI17_loop_spec_threadSaIS0_EE5beginEv
FNDA:0,_ZNKSt6vectorIPFPvS0_ESaIS2_EE5beginEv
FNDA:0,_ZNKSt6vectorIPvSaIS0_EE5beginEv
FNDA:0,_ZNSt6vectorIiSaIiEE3endEv
FNDA:0,_ZNSt6vectorIPvSaIS0_EE3endEv
FNDA:0,_ZNSt6vectorI17_loop_spec_threadSaIS0_EE3endEv
FNDA:0,_ZNSt6vectorIPFPvS0_ESaIS2_EE3endEv
FNDA:0,_ZNKSt6vectorIiSaIiEE3endEv
FNDA:0,_ZNKSt6vectorI17_loop_spec_threadSaIS0_EE3endEv
FNDA:0,_ZNKSt6vectorIPFPvS0_ESaIS2_EE3endEv
FNDA:0,_ZNKSt6vectorIPvSaIS0_EE3endEv
FNDA:0,_ZNKSt6vectorIiSaIiEE4sizeEv
FNDA:0,_ZNKSt6vectorIPFPvS0_ESaIS2_EE4sizeEv
FNDA:0,_ZNKSt6vectorIPvSaIS0_EE4sizeEv
FNDA:0,_ZNKSt6vectorI17_loop_spec_threadSaIS0_EE4sizeEv
FNDA:0,_ZNKSt6vectorIiSaIiEE8max_sizeEv
FNDA:0,_ZNKSt6vectorIPFPvS0_ESaIS2_EE8max_sizeEv
FNDA:0,_ZNKSt6vectorIPvSaIS0_EE8max_sizeEv
FNDA:0,_ZNKSt6vectorI17_loop_spec_threadSaIS0_EE8max_sizeEv
FNDA:0,_ZNSt6vectorI17_loop_spec_threadSaIS0_EE6resizeEjS0_
FNDA:0,_ZNKSt6vectorIiSaIiEE8capacityEv
FNDA:0,_ZNKSt6vectorIiSaIiEE5emptyEv
FNDA:0,_ZNKSt6vectorI17_loop_spec_threadSaIS0_EE5emptyEv
FNDA:0,_ZNSt6vectorIiSaIiEEixEj
FNDA:0,_ZNSt6vectorIPFPvS0_ESaIS2_EEixEj
FNDA:0,_ZNSt6vectorIPvSaIS0_EEixEj
FNDA:0,_ZNSt6vectorI17_loop_spec_threadSaIS0_EEixEj
FNDA:0,_ZNSt6vectorIiSaIiEE9push_backERKi
FNDA:0,_ZNSt6vectorIPvSaIS0_EE9push_backERKS0_
FNDA:0,_ZNSt6vectorIPFPvS0_ESaIS2_EE9push_backERKS2_
FNDA:0,_ZNSt6vectorI17_loop_spec_threadSaIS0_EE6insertEN9__gnu_cxx17__normal_iteratorIPS0_S2_EEjRKS0_
FNDA:0,_ZNSt6vectorIiSaIiEE6insertISt23_Rb_tree_const_iteratorIiEEEvN9__gnu_cxx17__normal_iteratorIPiS1_EET_S9_
FNDA:0,_ZNSt6vectorIiSaIiEE6insertIN9__gnu_cxx17__normal_iteratorIPiS1_EEEEvS6_T_S7_
FNDA:0,_ZNSt6vectorIPvSaIS0_EE5clearEv
FNDA:0,_ZNSt6vectorIPFPvS0_ESaIS2_EE5clearEv
FNDA:0,_ZNSt6vectorI17_loop_spec_threadSaIS0_EE5clearEv
FNDA:0,_ZNSt6vectorIiSaIiEE20_M_allocate_and_copyIN9__gnu_cxx17__normal_iteratorIPKiS1_EEEEPijT_S9_
FNDA:0,_ZNSt6vectorIiSaIiEE18_M_insert_dispatchISt23_Rb_tree_const_iteratorIiEEEvN9__gnu_cxx17__normal_iteratorIPiS1_EET_S9_St12__false_type
FNDA:0,_ZNSt6vectorIiSaIiEE18_M_insert_dispatchIN9__gnu_cxx17__normal_iteratorIPiS1_EEEEvS6_T_S7_St12__false_type
FNDA:0,_ZNKSt6vectorIiSaIiEE12_M_check_lenEjPKc
FNDA:0,_ZNKSt6vectorIPFPvS0_ESaIS2_EE12_M_check_lenEjPKc
FNDA:0,_ZNKSt6vectorIPvSaIS0_EE12_M_check_lenEjPKc
FNDA:0,_ZNKSt6vectorI17_loop_spec_threadSaIS0_EE12_M_check_lenEjPKc
FNDA:0,_ZNSt6vectorIPvSaIS0_EE15_M_erase_at_endEPS0_
FNDA:0,_ZNSt6vectorIPFPvS0_ESaIS2_EE15_M_erase_at_endEPS2_
FNDA:0,_ZNSt6vectorI17_loop_spec_threadSaIS0_EE15_M_erase_at_endEPS0_
FNF:100
FNH:0
BRDA:75,9999,0,-
BRDA:75,9999,2,-
BRDA:75,9999,3,-
BRDA:75,9999,5,-
BRDA:75,9999,6,-
BRDA:75,9999,8,-
BRDA:75,9999,9,-
BRDA:75,9999,11,-
BRDA:81,9999,0,-
BRDA:81,9999,2,-
BRDA:81,9999,4,-
BRDA:81,9999,6,-
BRDA:82,9999,0,-
BRDA:82,9999,1,-
BRDA:82,9999,2,-
BRDA:82,9999,3,-
BRDA:85,9999,0,-
BRDA:85,9999,2,-
BRDA:85,9999,4,-
BRDA:86,9999,0,-
BRDA:86,9999,1,-
BRDA:86,9999,2,-
BRDA:94,9999,0,-
BRDA:94,9999,1,-
BRDA:94,9999,2,-
BRDA:94,9999,3,-
BRDA:98,9999,0,-
BRDA:98,9999,1,-
BRDA:98,9999,2,-
BRDA:98,9999,3,-
BRDA:105,9999,0,-
BRDA:105,9999,2,-
BRDA:105,9999,3,-
BRDA:105,9999,5,-
BRDA:105,9999,6,-
BRDA:105,9999,8,-
BRDA:105,9999,9,-
BRDA:105,9999,11,-
BRDA:111,9999,0,-
BRDA:111,9999,2,-
BRDA:111,9999,5,-
BRDA:111,9999,7,-
BRDA:111,9999,10,-
BRDA:111,9999,12,-
BRDA:113,9999,0,-
BRDA:113,9999,1,-
BRDA:113,9999,3,-
BRDA:113,9999,4,-
BRDA:113,9999,6,-
BRDA:113,9999,7,-
BRDA:116,9999,0,-
BRDA:116,9999,1,-
BRDA:116,9999,2,-
BRDA:132,9999,0,-
BRDA:132,9999,1,-
BRDA:132,9999,3,-
BRDA:132,9999,4,-
BRDA:132,9999,6,-
BRDA:132,9999,7,-
BRDA:132,9999,9,-
BRDA:132,9999,10,-
BRDA:133,9999,0,-
BRDA:133,9999,2,-
BRDA:133,9999,3,-
BRDA:133,9999,6,-
BRDA:133,9999,8,-
BRDA:133,9999,9,-
BRDA:133,9999,12,-
BRDA:133,9999,14,-
BRDA:133,9999,15,-
BRDA:133,9999,18,-
BRDA:133,9999,20,-
BRDA:133,9999,21,-
BRDA:140,9999,0,-
BRDA:140,9999,1,-
BRDA:140,9999,2,-
BRDA:140,9999,4,-
BRDA:140,9999,5,-
BRDA:140,9999,6,-
BRDA:140,9999,7,-
BRDA:140,9999,8,-
BRDA:140,9999,9,-
BRDA:140,9999,11,-
BRDA:140,9999,12,-
BRDA:140,9999,13,-
BRDA:140,9999,14,-
BRDA:140,9999,15,-
BRDA:140,9999,16,-
BRDA:140,9999,18,-
BRDA:140,9999,19,-
BRDA:140,9999,20,-
BRDA:140,9999,21,-
BRDA:140,9999,22,-
BRDA:140,9999,23,-
BRDA:140,9999,25,-
BRDA:140,9999,26,-
BRDA:140,9999,27,-
BRDA:145,9999,0,-
BRDA:145,9999,1,-
BRDA:145,9999,2,-
BRDA:145,9999,3,-
BRDA:145,9999,4,-
BRDA:145,9999,5,-
BRDA:145,9999,6,-
BRDA:145,9999,7,-
BRDA:146,9999,0,-
BRDA:146,9999,2,-
BRDA:146,9999,4,-
BRDA:146,9999,6,-
BRDA:147,9999,0,-
BRDA:147,9999,1,-
BRDA:147,9999,2,-
BRDA:147,9999,3,-
BRDA:208,9999,0,-
BRDA:208,9999,2,-
BRDA:208,9999,3,-
BRDA:208,9999,5,-
BRDA:208,9999,6,-
BRDA:208,9999,8,-
BRDA:208,9999,9,-
BRDA:208,9999,11,-
BRDA:242,9999,0,-
BRDA:242,9999,2,-
BRDA:242,9999,4,-
BRDA:242,9999,6,-
BRDA:242,9999,9,-
BRDA:242,9999,11,-
BRDA:242,9999,13,-
BRDA:242,9999,15,-
BRDA:242,9999,18,-
BRDA:242,9999,20,-
BRDA:242,9999,22,-
BRDA:242,9999,24,-
BRDA:243,9999,0,-
BRDA:243,9999,2,-
BRDA:243,9999,3,-
BRDA:243,9999,5,-
BRDA:243,9999,6,-
BRDA:243,9999,8,-
BRDA:243,9999,9,-
BRDA:243,9999,11,-
BRDA:243,9999,13,-
BRDA:243,9999,14,-
BRDA:243,9999,16,-
BRDA:243,9999,17,-
BRDA:243,9999,19,-
BRDA:243,9999,20,-
BRDA:243,9999,22,-
BRDA:243,9999,24,-
BRDA:243,9999,25,-
BRDA:243,9999,27,-
BRDA:243,9999,28,-
BRDA:243,9999,30,-
BRDA:243,9999,31,-
BRDA:247,9999,0,-
BRDA:247,9999,1,-
BRDA:247,9999,2,-
BRDA:313,9999,0,-
BRDA:313,9999,2,-
BRDA:313,9999,3,-
BRDA:313,9999,5,-
BRDA:313,9999,7,-
BRDA:313,9999,8,-
BRDA:313,9999,10,-
BRDA:313,9999,12,-
BRDA:313,9999,13,-
BRDA:313,9999,15,-
BRDA:313,9999,17,-
BRDA:313,9999,18,-
BRDA:314,9999,0,-
BRDA:314,9999,2,-
BRDA:314,9999,3,-
BRDA:314,9999,6,-
BRDA:314,9999,8,-
BRDA:314,9999,9,-
BRDA:314,9999,12,-
BRDA:314,9999,14,-
BRDA:314,9999,15,-
BRDA:314,9999,18,-
BRDA:314,9999,20,-
BRDA:314,9999,21,-
BRDA:427,9999,0,-
BRDA:427,9999,2,-
BRDA:427,9999,3,-
BRDA:427,9999,5,-
BRDA:427,9999,6,-
BRDA:427,9999,8,-
BRDA:427,9999,9,-
BRDA:427,9999,11,-
BRDA:436,9999,0,-
BRDA:436,9999,2,-
BRDA:436,9999,3,-
BRDA:436,9999,5,-
BRDA:436,9999,6,-
BRDA:436,9999,8,-
BRDA:436,9999,9,-
BRDA:436,9999,11,-
BRDA:445,9999,0,-
BRDA:445,9999,2,-
BRDA:445,9999,3,-
BRDA:445,9999,5,-
BRDA:445,9999,6,-
BRDA:445,9999,8,-
BRDA:445,9999,9,-
BRDA:445,9999,11,-
BRDA:454,9999,0,-
BRDA:454,9999,2,-
BRDA:454,9999,3,-
BRDA:454,9999,5,-
BRDA:454,9999,6,-
BRDA:454,9999,8,-
BRDA:454,9999,9,-
BRDA:454,9999,11,-
BRDA:534,9999,0,-
BRDA:534,9999,1,-
BRDA:534,9999,2,-
BRDA:534,9999,3,-
BRDA:539,9999,0,-
BRDA:539,9999,2,-
BRDA:539,9999,4,-
BRDA:539,9999,5,-
BRDA:539,9999,7,-
BRDA:539,9999,9,-
BRDA:539,9999,10,-
BRDA:539,9999,12,-
BRDA:539,9999,14,-
BRDA:539,9999,15,-
BRDA:539,9999,17,-
BRDA:539,9999,19,-
BRDA:555,9999,0,-
BRDA:555,9999,2,-
BRDA:555,9999,3,-
BRDA:556,9999,0,-
BRDA:558,9999,0,-
BRDA:558,9999,2,-
BRDA:558,9999,4,-
BRDA:559,9999,0,-
BRDA:575,9999,0,-
BRDA:583,9999,0,-
BRDA:583,9999,2,-
BRDA:583,9999,4,-
BRDA:583,9999,6,-
BRDA:583,9999,7,-
BRDA:583,9999,9,-
BRDA:583,9999,11,-
BRDA:583,9999,13,-
BRDA:619,9999,0,-
BRDA:619,9999,1,-
BRDA:619,9999,2,-
BRDA:619,9999,3,-
BRDA:743,9999,0,-
BRDA:743,9999,1,-
BRDA:743,9999,2,-
BRDA:743,9999,3,-
BRDA:743,9999,4,-
BRDA:743,9999,5,-
BRDA:745,9999,0,-
BRDA:745,9999,2,-
BRDA:745,9999,4,-
BRDA:746,9999,0,-
BRDA:746,9999,1,-
BRDA:746,9999,2,-
BRDA:749,9999,0,-
BRDA:749,9999,2,-
BRDA:749,9999,4,-
BRDA:749,9999,6,-
BRDA:749,9999,8,-
BRDA:749,9999,10,-
BRDA:750,9999,0,-
BRDA:750,9999,1,-
BRDA:750,9999,2,-
BRDA:859,9999,0,-
BRDA:859,9999,2,-
BRDA:882,9999,0,-
BRDA:882,9999,2,-
BRDA:883,9999,0,-
BRDA:883,9999,1,-
BRDA:955,9999,0,-
BRDA:955,9999,2,-
BRDA:955,9999,3,-
BRDA:955,9999,5,-
BRDA:955,9999,6,-
BRDA:955,9999,8,-
BRDA:967,9999,0,-
BRDA:970,9999,0,-
BRDA:970,9999,2,-
BRDA:970,9999,3,-
BRDA:972,9999,0,-
BRDA:974,9999,0,-
BRDA:974,9999,3,-
BRDA:974,9999,4,-
BRDA:976,9999,0,-
BRDA:976,9999,1,-
BRDA:977,9999,0,-
BRDA:1106,9999,0,-
BRDA:1106,9999,2,-
BRDA:1107,9999,0,-
BRDA:1107,9999,1,-
BRDA:1140,9999,0,-
BRDA:1140,9999,2,-
BRDA:1140,9999,4,-
BRDA:1140,9999,5,-
BRDA:1140,9999,6,-
BRDA:1140,9999,8,-
BRDA:1140,9999,10,-
BRDA:1140,9999,11,-
BRDA:1140,9999,12,-
BRDA:1140,9999,14,-
BRDA:1140,9999,16,-
BRDA:1140,9999,17,-
BRDA:1140,9999,18,-
BRDA:1140,9999,20,-
BRDA:1140,9999,22,-
BRDA:1140,9999,23,-
BRDA:1143,9999,0,-
BRDA:1143,9999,2,-
BRDA:1143,9999,4,-
BRDA:1143,9999,6,-
BRDA:1143,9999,8,-
BRDA:1143,9999,10,-
BRDA:1143,9999,12,-
BRDA:1143,9999,14,-
BRDA:1143,9999,16,-
BRDA:1143,9999,18,-
BRDA:1143,9999,20,-
BRDA:1143,9999,22,-
BRDA:1144,9999,0,-
BRDA:1144,9999,2,-
BRDA:1144,9999,3,-
BRDA:1144,9999,4,-
BRDA:1144,9999,6,-
BRDA:1144,9999,7,-
BRDA:1144,9999,8,-
BRDA:1144,9999,10,-
BRDA:1144,9999,11,-
BRDA:1144,9999,12,-
BRDA:1144,9999,14,-
BRDA:1144,9999,15,-
BRDA:1144,9999,16,-
BRDA:1144,9999,18,-
BRDA:1144,9999,19,-
BRDA:1144,9999,20,-
BRDA:1144,9999,22,-
BRDA:1144,9999,23,-
BRDA:1144,9999,24,-
BRDA:1144,9999,26,-
BRDA:1144,9999,27,-
BRDA:1144,9999,28,-
BRDA:1144,9999,30,-
BRDA:1144,9999,31,-
BRDA:1144,9999,32,-
BRDA:1144,9999,34,-
BRDA:1144,9999,35,-
BRDA:1144,9999,36,-
BRDA:1144,9999,38,-
BRDA:1144,9999,39,-
BRDA:1144,9999,40,-
BRDA:1144,9999,42,-
BRDA:1144,9999,43,-
BRDA:1144,9999,44,-
BRDA:1144,9999,46,-
BRDA:1144,9999,47,-
BRDA:1144,9999,48,-
BRDA:1154,9999,0,-
BRDA:1154,9999,2,-
BRDA:1154,9999,4,-
BRDA:1154,9999,6,-
BRDA:1154,9999,8,-
BRDA:1154,9999,10,-
BRDA:1156,9999,0,-
BRDA:1156,9999,1,-
BRDA:1156,9999,2,-
BRF:372
BRH:0
DA:75,0
DA:80,0
DA:81,0
DA:82,0
DA:84,0
DA:85,0
DA:86,0
DA:93,0
DA:94,0
DA:97,0
DA:98,0
DA:104,0
DA:105,0
DA:110,0
DA:111,0
DA:113,0
DA:114,0
DA:115,0
DA:116,0
DA:131,0
DA:132,0
DA:133,0
DA:139,0
DA:140,0
DA:143,0
DA:145,0
DA:146,0
DA:147,0
DA:207,0
DA:208,0
DA:241,0
DA:242,0
DA:243,0
DA:247,0
DA:312,0
DA:313,0
DA:314,0
DA:426,0
DA:427,0
DA:435,0
DA:436,0
DA:444,0
DA:445,0
DA:453,0
DA:454,0
DA:533,0
DA:534,0
DA:538,0
DA:539,0
DA:553,0
DA:555,0
DA:556,0
DA:558,0
DA:559,0
DA:573,0
DA:575,0
DA:582,0
DA:583,0
DA:618,0
DA:619,0
DA:741,0
DA:743,0
DA:745,0
DA:746,0
DA:749,0
DA:750,0
DA:858,0
DA:859,0
DA:877,0
DA:882,0
DA:883,0
DA:954,0
DA:955,0
DA:964,0
DA:967,0
DA:970,0
DA:972,0
DA:974,0
DA:976,0
DA:977,0
DA:1101,0
DA:1106,0
DA:1107,0
DA:1138,0
DA:1140,0
DA:1141,0
DA:1143,0
DA:1144,0
DA:1152,0
DA:1154,0
DA:1155,0
DA:1156,0
LF:92
LH:0
end_of_record
SF:/usr/include/c++/4.5/bits/vector.tcc
FN:133,_ZNSt6vectorIPvSaIS0_EE5eraseEN9__gnu_cxx17__normal_iteratorIPS0_S2_EE
FN:133,_ZNSt6vectorIiSaIiEE5eraseEN9__gnu_cxx17__normal_iteratorIPiS1_EE
FN:156,_ZNSt6vectorIiSaIiEEaSERKS1_
FN:295,_ZNSt6vectorIiSaIiEE13_M_insert_auxEN9__gnu_cxx17__normal_iteratorIPiS1_EERKi
FN:295,_ZNSt6vectorIPFPvS0_ESaIS2_EE13_M_insert_auxEN9__gnu_cxx17__normal_iteratorIPS2_S4_EERKS2_
FN:295,_ZNSt6vectorIPvSaIS0_EE13_M_insert_auxEN9__gnu_cxx17__normal_iteratorIPS0_S2_EERKS0_
FN:372,_ZNSt6vectorI17_loop_spec_threadSaIS0_EE14_M_fill_insertEN9__gnu_cxx17__normal_iteratorIPS0_S2_EEjRKS0_
FN:478,_ZNSt6vectorIiSaIiEE15_M_range_insertIN9__gnu_cxx17__normal_iteratorIPiS1_EEEEvS6_T_S7_St20forward_iterator_tag
FN:478,_ZNSt6vectorIiSaIiEE15_M_range_insertISt23_Rb_tree_const_iteratorIiEEEvN9__gnu_cxx17__normal_iteratorIPiS1_EET_S9_St20forward_iterator_tag
FNDA:0,_ZNSt6vectorIiSaIiEE5eraseEN9__gnu_cxx17__normal_iteratorIPiS1_EE
FNDA:0,_ZNSt6vectorIPvSaIS0_EE5eraseEN9__gnu_cxx17__normal_iteratorIPS0_S2_EE
FNDA:0,_ZNSt6vectorIiSaIiEEaSERKS1_
FNDA:0,_ZNSt6vectorIiSaIiEE13_M_insert_auxEN9__gnu_cxx17__normal_iteratorIPiS1_EERKi
FNDA:0,_ZNSt6vectorIPvSaIS0_EE13_M_insert_auxEN9__gnu_cxx17__normal_iteratorIPS0_S2_EERKS0_
FNDA:0,_ZNSt6vectorIPFPvS0_ESaIS2_EE13_M_insert_auxEN9__gnu_cxx17__normal_iteratorIPS2_S4_EERKS2_
FNDA:0,_ZNSt6vectorI17_loop_spec_threadSaIS0_EE14_M_fill_insertEN9__gnu_cxx17__normal_iteratorIPS0_S2_EEjRKS0_
FNDA:0,_ZNSt6vectorIiSaIiEE15_M_range_insertISt23_Rb_tree_const_iteratorIiEEEvN9__gnu_cxx17__normal_iteratorIPiS1_EET_S9_St20forward_iterator_tag
FNDA:0,_ZNSt6vectorIiSaIiEE15_M_range_insertIN9__gnu_cxx17__normal_iteratorIPiS1_EEEEvS6_T_S7_St20forward_iterator_tag
FNF:9
FNH:0
BRDA:136,9999,0,-
BRDA:136,9999,2,-
BRDA:136,9999,4,-
BRDA:136,9999,6,-
BRDA:136,9999,7,-
BRDA:136,9999,8,-
BRDA:136,9999,10,-
BRDA:136,9999,12,-
BRDA:136,9999,14,-
BRDA:136,9999,15,-
BRDA:137,9999,0,-
BRDA:137,9999,2,-
BRDA:137,9999,4,-
BRDA:137,9999,6,-
BRDA:137,9999,8,-
BRDA:137,9999,10,-
BRDA:139,9999,0,-
BRDA:139,9999,2,-
BRDA:140,9999,0,-
BRDA:140,9999,1,-
BRDA:159,9999,0,-
BRDA:159,9999,1,-
BRDA:161,9999,0,-
BRDA:162,9999,0,-
BRDA:162,9999,2,-
BRDA:162,9999,3,-
BRDA:165,9999,0,-
BRDA:165,9999,2,-
BRDA:165,9999,4,-
BRDA:166,9999,0,-
BRDA:166,9999,2,-
BRDA:168,9999,0,-
BRDA:172,9999,0,-
BRDA:174,9999,0,-
BRDA:174,9999,2,-
BRDA:174,9999,3,-
BRDA:176,9999,0,-
BRDA:176,9999,2,-
BRDA:176,9999,4,-
BRDA:176,9999,6,-
BRDA:176,9999,8,-
BRDA:176,9999,10,-
BRDA:176,9999,12,-
BRDA:181,9999,0,-
BRDA:181,9999,2,-
BRDA:183,9999,0,-
BRDA:183,9999,2,-
BRDA:183,9999,4,-
BRDA:188,9999,0,-
BRDA:190,9999,0,-
BRDA:299,9999,0,-
BRDA:299,9999,1,-
BRDA:299,9999,2,-
BRDA:299,9999,3,-
BRDA:299,9999,4,-
BRDA:299,9999,5,-
BRDA:301,9999,0,-
BRDA:301,9999,2,-
BRDA:301,9999,4,-
BRDA:308,9999,0,-
BRDA:308,9999,2,-
BRDA:308,9999,4,-
BRDA:308,9999,6,-
BRDA:308,9999,8,-
BRDA:308,9999,10,-
BRDA:312,9999,0,-
BRDA:312,9999,2,-
BRDA:312,9999,3,-
BRDA:312,9999,5,-
BRDA:312,9999,6,-
BRDA:312,9999,8,-
BRDA:320,9999,0,-
BRDA:320,9999,2,-
BRDA:320,9999,4,-
BRDA:321,9999,0,-
BRDA:321,9999,2,-
BRDA:321,9999,4,-
BRDA:321,9999,6,-
BRDA:321,9999,8,-
BRDA:321,9999,10,-
BRDA:322,9999,0,-
BRDA:322,9999,2,-
BRDA:322,9999,4,-
BRDA:330,9999,0,-
BRDA:330,9999,2,-
BRDA:330,9999,4,-
BRDA:338,9999,0,-
BRDA:338,9999,2,-
BRDA:338,9999,4,-
BRDA:338,9999,5,-
BRDA:338,9999,7,-
BRDA:338,9999,9,-
BRDA:338,9999,11,-
BRDA:338,9999,12,-
BRDA:338,9999,14,-
BRDA:338,9999,16,-
BRDA:338,9999,18,-
BRDA:338,9999,19,-
BRDA:344,9999,0,-
BRDA:344,9999,2,-
BRDA:344,9999,4,-
BRDA:344,9999,5,-
BRDA:344,9999,7,-
BRDA:344,9999,9,-
BRDA:344,9999,11,-
BRDA:344,9999,12,-
BRDA:344,9999,14,-
BRDA:344,9999,16,-
BRDA:344,9999,18,-
BRDA:344,9999,19,-
BRDA:350,9999,0,-
BRDA:350,9999,3,-
BRDA:350,9999,4,-
BRDA:350,9999,6,-
BRDA:350,9999,9,-
BRDA:350,9999,10,-
BRDA:350,9999,12,-
BRDA:350,9999,15,-
BRDA:350,9999,16,-
BRDA:352,9999,0,-
BRDA:352,9999,1,-
BRDA:352,9999,2,-
BRDA:352,9999,3,-
BRDA:352,9999,4,-
BRDA:352,9999,5,-
BRDA:353,9999,0,-
BRDA:353,9999,2,-
BRDA:353,9999,4,-
BRDA:355,9999,0,-
BRDA:355,9999,2,-
BRDA:355,9999,3,-
BRDA:355,9999,5,-
BRDA:355,9999,7,-
BRDA:355,9999,8,-
BRDA:355,9999,10,-
BRDA:355,9999,12,-
BRDA:355,9999,13,-
BRDA:356,9999,0,-
BRDA:356,9999,1,-
BRDA:356,9999,3,-
BRDA:356,9999,4,-
BRDA:356,9999,6,-
BRDA:356,9999,7,-
BRDA:357,9999,0,-
BRDA:357,9999,1,-
BRDA:357,9999,2,-
BRDA:359,9999,0,-
BRDA:359,9999,2,-
BRDA:359,9999,4,-
BRDA:359,9999,6,-
BRDA:359,9999,8,-
BRDA:359,9999,10,-
BRDA:361,9999,0,-
BRDA:361,9999,2,-
BRDA:361,9999,4,-
BRDA:366,9999,0,-
BRDA:366,9999,1,-
BRDA:366,9999,2,-
BRDA:368,9999,0,-
BRDA:368,9999,1,-
BRDA:368,9999,2,-
BRDA:375,9999,0,-
BRDA:375,9999,1,-
BRDA:377,9999,0,-
BRDA:377,9999,1,-
BRDA:380,9999,0,-
BRDA:380,9999,2,-
BRDA:380,9999,4,-
BRDA:381,9999,0,-
BRDA:381,9999,1,-
BRDA:381,9999,3,-
BRDA:381,9999,4,-
BRDA:383,9999,0,-
BRDA:383,9999,1,-
BRDA:385,9999,0,-
BRDA:385,9999,2,-
BRDA:385,9999,3,-
BRDA:390,9999,0,-
BRDA:390,9999,2,-
BRDA:390,9999,3,-
BRDA:392,9999,0,-
BRDA:392,9999,2,-
BRDA:392,9999,4,-
BRDA:392,9999,5,-
BRDA:397,9999,0,-
BRDA:397,9999,2,-
BRDA:397,9999,3,-
BRDA:402,9999,0,-
BRDA:402,9999,2,-
BRDA:402,9999,4,-
BRDA:402,9999,5,-
BRDA:406,9999,0,-
BRDA:406,9999,2,-
BRDA:406,9999,3,-
BRDA:412,9999,0,-
BRDA:413,9999,0,-
BRDA:413,9999,2,-
BRDA:414,9999,0,-
BRDA:419,9999,0,-
BRDA:419,9999,2,-
BRDA:419,9999,3,-
BRDA:424,9999,0,-
BRDA:424,9999,2,-
BRDA:424,9999,4,-
BRDA:424,9999,5,-
BRDA:431,9999,0,-
BRDA:431,9999,2,-
BRDA:431,9999,4,-
BRDA:431,9999,5,-
BRDA:437,9999,0,-
BRDA:437,9999,3,-
BRDA:437,9999,4,-
BRDA:439,9999,0,-
BRDA:439,9999,1,-
BRDA:440,9999,0,-
BRDA:440,9999,2,-
BRDA:440,9999,3,-
BRDA:444,9999,0,-
BRDA:444,9999,2,-
BRDA:444,9999,3,-
BRDA:446,9999,0,-
BRDA:446,9999,1,-
BRDA:447,9999,0,-
BRDA:449,9999,0,-
BRDA:449,9999,2,-
BRDA:451,9999,0,-
BRDA:456,9999,0,-
BRDA:459,9999,0,-
BRDA:482,9999,0,-
BRDA:482,9999,2,-
BRDA:482,9999,3,-
BRDA:482,9999,4,-
BRDA:482,9999,6,-
BRDA:482,9999,7,-
BRDA:484,9999,0,-
BRDA:484,9999,2,-
BRDA:485,9999,0,-
BRDA:485,9999,1,-
BRDA:485,9999,2,-
BRDA:485,9999,3,-
BRDA:488,9999,0,-
BRDA:488,9999,2,-
BRDA:488,9999,4,-
BRDA:488,9999,6,-
BRDA:490,9999,0,-
BRDA:490,9999,1,-
BRDA:490,9999,2,-
BRDA:490,9999,3,-
BRDA:492,9999,0,-
BRDA:492,9999,2,-
BRDA:492,9999,4,-
BRDA:492,9999,6,-
BRDA:497,9999,0,-
BRDA:497,9999,2,-
BRDA:497,9999,4,-
BRDA:497,9999,6,-
BRDA:499,9999,0,-
BRDA:499,9999,2,-
BRDA:504,9999,0,-
BRDA:504,9999,2,-
BRDA:505,9999,0,-
BRDA:505,9999,2,-
BRDA:505,9999,4,-
BRDA:505,9999,6,-
BRDA:509,9999,0,-
BRDA:509,9999,2,-
BRDA:509,9999,4,-
BRDA:509,9999,6,-
BRDA:509,9999,8,-
BRDA:509,9999,10,-
BRDA:514,9999,0,-
BRDA:514,9999,2,-
BRDA:520,9999,0,-
BRDA:520,9999,2,-
BRDA:521,9999,0,-
BRDA:521,9999,2,-
BRDA:525,9999,0,-
BRDA:525,9999,2,-
BRDA:525,9999,4,-
BRDA:525,9999,5,-
BRDA:525,9999,7,-
BRDA:525,9999,9,-
BRDA:525,9999,11,-
BRDA:525,9999,12,-
BRDA:530,9999,0,-
BRDA:530,9999,2,-
BRDA:530,9999,3,-
BRDA:530,9999,5,-
BRDA:530,9999,7,-
BRDA:530,9999,8,-
BRDA:534,9999,0,-
BRDA:534,9999,2,-
BRDA:534,9999,4,-
BRDA:534,9999,5,-
BRDA:534,9999,7,-
BRDA:534,9999,9,-
BRDA:534,9999,11,-
BRDA:534,9999,12,-
BRDA:540,9999,0,-
BRDA:540,9999,3,-
BRDA:540,9999,4,-
BRDA:540,9999,6,-
BRDA:540,9999,9,-
BRDA:540,9999,10,-
BRDA:542,9999,0,-
BRDA:542,9999,2,-
BRDA:542,9999,3,-
BRDA:542,9999,5,-
BRDA:542,9999,7,-
BRDA:542,9999,8,-
BRDA:544,9999,0,-
BRDA:544,9999,1,-
BRDA:544,9999,3,-
BRDA:544,9999,4,-
BRDA:545,9999,0,-
BRDA:545,9999,1,-
BRDA:547,9999,0,-
BRDA:547,9999,2,-
BRDA:547,9999,4,-
BRDA:547,9999,6,-
BRDA:549,9999,0,-
BRDA:549,9999,2,-
BRDA:554,9999,0,-
BRDA:554,9999,1,-
BRDA:557,9999,0,-
BRDA:557,9999,1,-
BRF:326
BRH:0
DA:133,0
DA:136,0
DA:137,0
DA:138,0
DA:139,0
DA:140,0
DA:156,0
DA:159,0
DA:161,0
DA:162,0
DA:165,0
DA:166,0
DA:168,0
DA:171,0
DA:172,0
DA:174,0
DA:176,0
DA:181,0
DA:183,0
DA:188,0
DA:190,0
DA:295,0
DA:299,0
DA:301,0
DA:304,0
DA:306,0
DA:308,0
DA:312,0
DA:320,0
DA:321,0
DA:322,0
DA:323,0
DA:330,0
DA:336,0
DA:338,0
DA:342,0
DA:344,0
DA:350,0
DA:352,0
DA:353,0
DA:355,0
DA:356,0
DA:357,0
DA:359,0
DA:361,0
DA:364,0
DA:365,0
DA:366,0
DA:368,0
DA:372,0
DA:375,0
DA:377,0
DA:380,0
DA:381,0
DA:382,0
DA:383,0
DA:385,0
DA:389,0
DA:390,0
DA:392,0
DA:397,0
DA:401,0
DA:402,0
DA:405,0
DA:406,0
DA:412,0
DA:413,0
DA:414,0
DA:415,0
DA:419,0
DA:422,0
DA:424,0
DA:429,0
DA:431,0
DA:437,0
DA:439,0
DA:440,0
DA:444,0
DA:446,0
DA:447,0
DA:449,0
DA:451,0
DA:454,0
DA:455,0
DA:456,0
DA:459,0
DA:478,0
DA:482,0
DA:484,0
DA:485,0
DA:488,0
DA:489,0
DA:490,0
DA:492,0
DA:496,0
DA:497,0
DA:499,0
DA:503,0
DA:504,0
DA:505,0
DA:508,0
DA:509,0
DA:513,0
DA:514,0
DA:520,0
DA:521,0
DA:522,0
DA:525,0
DA:530,0
DA:534,0
DA:540,0
DA:542,0
DA:544,0
DA:545,0
DA:547,0
DA:549,0
DA:552,0
DA:553,0
DA:554,0
DA:557,0
LF:120
LH:0
end_of_record
